
Generator.elf:     file format elf32-littleriscv
Generator.elf
architecture: riscv:rv32, flags 0x00000112:
EXEC_P, HAS_SYMS, D_PAGED
start address 0x00000000

Program Header:
    LOAD off    0x00001000 vaddr 0x00000000 paddr 0x00000000 align 2**12
         filesz 0x000040fc memsz 0x000040fc flags r-x
    LOAD off    0x00006000 vaddr 0x20000000 paddr 0x000040fc align 2**12
         filesz 0x00000260 memsz 0x00000318 flags rw-
    LOAD off    0x00006800 vaddr 0x20004800 paddr 0x20004800 align 2**12
         filesz 0x00000000 memsz 0x00000800 flags rw-

Sections:
Idx Name          Size      VMA       LMA       File off  Algn
  0 .init         00000004  00000000  00000000  00001000  2**1
                  CONTENTS, ALLOC, LOAD, READONLY, CODE
  1 .vector       000000fc  00000004  00000004  00001004  2**1
                  CONTENTS, ALLOC, LOAD, READONLY, CODE
  2 .text         00003ffc  00000100  00000100  00001100  2**2
                  CONTENTS, ALLOC, LOAD, READONLY, CODE
  3 .fini         00000000  000040fc  000040fc  00006260  2**0
                  CONTENTS, ALLOC, LOAD, CODE
  4 .dalign       00000000  20000000  20000000  00006260  2**0
                  CONTENTS
  5 .dlalign      00000000  000040fc  000040fc  00006260  2**0
                  CONTENTS
  6 .data         00000260  20000000  000040fc  00006000  2**2
                  CONTENTS, ALLOC, LOAD, DATA
  7 .bss          000000b8  20000260  0000435c  00006260  2**2
                  ALLOC
  8 .stack        00000800  20004800  20004800  00006800  2**0
                  ALLOC
  9 .debug_info   00011acb  00000000  00000000  00006260  2**0
                  CONTENTS, READONLY, DEBUGGING
 10 .debug_abbrev 0000302c  00000000  00000000  00017d2b  2**0
                  CONTENTS, READONLY, DEBUGGING
 11 .debug_loc    00003e93  00000000  00000000  0001ad57  2**0
                  CONTENTS, READONLY, DEBUGGING
 12 .debug_aranges 000008a8  00000000  00000000  0001ebf0  2**3
                  CONTENTS, READONLY, DEBUGGING
 13 .debug_ranges 000008f0  00000000  00000000  0001f498  2**3
                  CONTENTS, READONLY, DEBUGGING
 14 .debug_line   0000bdeb  00000000  00000000  0001fd88  2**0
                  CONTENTS, READONLY, DEBUGGING
 15 .debug_str    00002bcf  00000000  00000000  0002bb73  2**0
                  CONTENTS, READONLY, DEBUGGING
 16 .comment      00000033  00000000  00000000  0002e742  2**0
                  CONTENTS, READONLY
 17 .debug_frame  00002074  00000000  00000000  0002e778  2**2
                  CONTENTS, READONLY, DEBUGGING
 18 .stab         00000084  00000000  00000000  000307ec  2**2
                  CONTENTS, READONLY, DEBUGGING
 19 .stabstr      00000117  00000000  00000000  00030870  2**0
                  CONTENTS, READONLY, DEBUGGING
SYMBOL TABLE:
00000000 l    d  .init	00000000 .init
00000004 l    d  .vector	00000000 .vector
00000100 l    d  .text	00000000 .text
000040fc l    d  .fini	00000000 .fini
20000000 l    d  .dalign	00000000 .dalign
000040fc l    d  .dlalign	00000000 .dlalign
20000000 l    d  .data	00000000 .data
20000260 l    d  .bss	00000000 .bss
20004800 l    d  .stack	00000000 .stack
00000000 l    d  .debug_info	00000000 .debug_info
00000000 l    d  .debug_abbrev	00000000 .debug_abbrev
00000000 l    d  .debug_loc	00000000 .debug_loc
00000000 l    d  .debug_aranges	00000000 .debug_aranges
00000000 l    d  .debug_ranges	00000000 .debug_ranges
00000000 l    d  .debug_line	00000000 .debug_line
00000000 l    d  .debug_str	00000000 .debug_str
00000000 l    d  .comment	00000000 .comment
00000000 l    d  .debug_frame	00000000 .debug_frame
00000000 l    d  .stab	00000000 .stab
00000000 l    d  .stabstr	00000000 .stabstr
00000000 l    df *ABS*	00000000 ./Startup/startup_ch32x035.o
00000004 l       .vector	00000000 _vector_base
00000000 l    df *ABS*	00000000 AD9833.c
00000208 l     F .text	00000038 AD9833_WriteRegister
00000240 l     F .text	00000064 AD9833_WriteCfgReg
0000373c l     O .text	0000000c CSWTCH.19
00003748 l     O .text	00000013 __func__.5508
0000375c l     O .text	00000013 __func__.5512
00003770 l     O .text	00000014 __func__.5523
00000000 l    df *ABS*	00000000 ch32x035_it.c
00000000 l    df *ABS*	00000000 enc.c
00000000 l    df *ABS*	00000000 main.c
20000272 l     O .bss	00000001 led
00000000 l    df *ABS*	00000000 ssd1306.c
00000000 l    df *ABS*	00000000 system_ch32x035.c
00000000 l    df *ABS*	00000000 ch32x035_dbgmcu.c
00000000 l    df *ABS*	00000000 ch32x035_exti.c
00000000 l    df *ABS*	00000000 ch32x035_gpio.c
00000000 l    df *ABS*	00000000 ch32x035_misc.c
00000000 l    df *ABS*	00000000 ch32x035_rcc.c
20000038 l     O .data	00000010 APBAHBPrescTable
00000000 l    df *ABS*	00000000 ch32x035_spi.c
00000000 l    df *ABS*	00000000 ch32x035_tim.c
00000000 l    df *ABS*	00000000 ch32x035_usart.c
00000000 l    df *ABS*	00000000 debug.c
20000288 l     O .bss	00000002 p_ms
2000028a l     O .bss	00000001 p_us
20000254 l     O .data	00000004 curbrk.4333
00000000 l    df *ABS*	00000000 divsf3.c
00000000 l    df *ABS*	00000000 mulsf3.c
00000000 l    df *ABS*	00000000 fixunssfsi.c
00000000 l    df *ABS*	00000000 floatunsisf.c
00000000 l    df *ABS*	00000000 libgcc2.c
00000000 l    df *ABS*	00000000 atol.c
00000000 l    df *ABS*	00000000 calloc.c
00000000 l    df *ABS*	00000000 malloc.c
00000000 l    df *ABS*	00000000 nano-mallocr.c
00000000 l    df *ABS*	00000000 nano-mallocr.c
00000000 l    df *ABS*	00000000 nano-mallocr.c
00000000 l    df *ABS*	00000000 printf.c
00000000 l    df *ABS*	00000000 sbrkr.c
00000000 l    df *ABS*	00000000 sprintf.c
00000000 l    df *ABS*	00000000 strlen.c
00000000 l    df *ABS*	00000000 strstr.c
00000000 l    df *ABS*	00000000 strtol.c
00002162 l     F .text	00000138 _strtol_l.isra.0
00000000 l    df *ABS*	00000000 findfp.c
000022b6 l     F .text	00000066 std
00000000 l    df *ABS*	00000000 fwalk.c
00000000 l    df *ABS*	00000000 locale.c
00000000 l    df *ABS*	00000000 mbtowc_r.c
00000000 l    df *ABS*	00000000 mlock.c
00000000 l    df *ABS*	00000000 nano-vfprintf.c
00000000 l    df *ABS*	00000000 nano-vfprintf.c
00002862 l     F .text	00000026 __sfputc_r
00000000 l    df *ABS*	00000000 nano-vfprintf_i.c
00000000 l    df *ABS*	00000000 stdio.c
00000000 l    df *ABS*	00000000 wbuf.c
00000000 l    df *ABS*	00000000 wctomb_r.c
00000000 l    df *ABS*	00000000 writer.c
00000000 l    df *ABS*	00000000 wsetup.c
00000000 l    df *ABS*	00000000 closer.c
00000000 l    df *ABS*	00000000 fflush.c
00000000 l    df *ABS*	00000000 lseekr.c
00000000 l    df *ABS*	00000000 makebuf.c
00000000 l    df *ABS*	00000000 memchr.c
00000000 l    df *ABS*	00000000 memcpy.c
00000000 l    df *ABS*	00000000 memmove.c
00000000 l    df *ABS*	00000000 nano-mallocr.c
00000000 l    df *ABS*	00000000 readr.c
00000000 l    df *ABS*	00000000 fstatr.c
00000000 l    df *ABS*	00000000 isattyr.c
00000000 l    df *ABS*	00000000 nano-mallocr.c
00000000 l    df *ABS*	00000000 close.c
00000000 l    df *ABS*	00000000 fstat.c
00000000 l    df *ABS*	00000000 isatty.c
00000000 l    df *ABS*	00000000 lseek.c
00000000 l    df *ABS*	00000000 read.c
00000000 l    df *ABS*	00000000 libgcc2.c
00000000 l    df *ABS*	00000000 ctype_.c
00000000 l    df *ABS*	00000000 impure.c
20000048 l     O .data	00000060 impure_data
00000000 l    df *ABS*	00000000 reent.c
00001600 g     F .text	00000016 TIM_TimeBaseStructInit
0000366e g     F .text	00000014 _malloc_usable_size_r
00003646 g     F .text	00000028 _isatty_r
20000234 g     O .data	00000002 psc
20000262 g     O .bss	00000001 _reset_state
200002d4 g     O .bss	00000040 tmp
00003376 g     F .text	0000002c _lseek_r
20000220 g     O .data	00000002 arr
2000027c g     O .bss	00000004 step_idx
0000206e g     F .text	00000040 printf
20000a18 g       .data	00000000 __global_pointer$
00000108 g     F .text	00000028 .hidden __riscv_save_8
20000261 g     O .bss	00000001 _phase_source
0000119e  w      .text	00000000 TIM1_CC_IRQHandler
0000119e  w      .text	00000000 TIM2_UP_IRQHandler
00002f74 g     F .text	00000030 __sseek
0000236e g     F .text	00000066 __sinit
00001596 g     F .text	00000014 SPI_I2S_SendData
00002faa g     F .text	000000be __swbuf_r
00000404 g     F .text	00000010 HardFault_Handler
00002326 g     F .text	00000048 __sfmoreglue
20000248 g     O .data	00000004 CFGHR_tmpA
00002514 g     F .text	00000002 __malloc_unlock
20000218 g     O .data	00000001 _waveform
0000119e  w      .text	00000000 USBPD_IRQHandler
20000260 g     O .bss	00000001 _freq_source
00000154 g     F .text	0000000c .hidden __riscv_restore_3
000017ea g     F .text	000002ae .hidden __divsf3
2000001c g     O .data	0000000c menu
0000119e  w      .text	00000000 SysTick_Handler
00001496 g     F .text	00000054 NVIC_Init
0000119e  w      .text	00000000 PVD_IRQHandler
00003552 g     F .text	00000046 memmove
00000140 g     F .text	00000020 .hidden __riscv_restore_10
00000402 g     F .text	00000002 NMI_Handler
20000263 g     O .bss	00000001 _sleep_mode
00001062 g     F .text	000000c0 OLED_text_xy
00000108 g     F .text	00000028 .hidden __riscv_save_11
00001226 g     F .text	0000000a DBGMCU_GetCHIPID
00001eba g     F .text	00000006 atol
00001724 g     F .text	0000000a USART_GetFlagStatus
0000361c g     F .text	0000002a _fstat_r
20000314 g     O .bss	00000004 errno
20000260 g       .bss	00000000 _sbss
00000800 g       *ABS*	00000000 __stack_size
0000119e  w      .text	00000000 EXTI25_16_IRQHandler
00000818 g     F .text	0000003c GPIO_ConfigOut
0000119e  w      .text	00000000 USBFS_IRQHandler
00000154 g     F .text	0000000c .hidden __riscv_restore_2
20000228 g     O .data	00000004 epoch
000034a0 g     F .text	000000b2 memcpy
00000322 g     F .text	00000022 AD9833_SetPhase
00000fe6 g     F .text	0000005e OLED_Init
0000231c g     F .text	0000000a _cleanup_r
000025fa g     F .text	00000268 _svfprintf_r
00000344 g     F .text	0000008c AD9833_SetFrequency
20000264 g     O .bss	00000001 dbg
2000022c g     O .data	00000004 freq
20000244 g     O .data	00000004 SystemCoreClock
0000171c g     F .text	00000008 USART_ReceiveData
2000021c g     O .data	00000004 LedPort
20000265 g     O .bss	00000001 evt
0000368e g     F .text	0000000c _fstat
0000090e g     F .text	000000ee spi_init
00000004 g       .init	00000000 _einit
0000162e g     F .text	0000000c TIM_ClearITPendingBit
00001528 g     F .text	0000001e RCC_APB2PeriphClockCmd
00000100 g     F .text	00000030 .hidden __riscv_save_12
000008d0 g     F .text	0000003e calcTime
000012c2 g     F .text	0000018e GPIO_Init
0000119e  w      .text	00000000 Break_Point_Handler
0000119e  w      .text	00000000 TIM2_TRG_COM_IRQHandler
00000854 g     F .text	00000030 Leds
00000140 g     F .text	00000020 .hidden __riscv_restore_11
0000119e  w      .text	00000000 TIM2_CC_IRQHandler
20000284 g     O .bss	00000004 NVIC_Priority_Group
0000119e  w      .text	00000000 SPI1_IRQHandler
000016c8 g     F .text	00000016 USART_Cmd
000020ae g     F .text	0000002a _sbrk_r
00000130 g     F .text	0000000c .hidden __riscv_save_1
20000000 g     O .data	0000001c allStep
00000154 g     F .text	0000000c .hidden __riscv_restore_0
0000119e  w      .text	00000000 AWU_IRQHandler
00000498 g     F .text	00000022 EXTI7_0_IRQHandler
000035f0 g     F .text	0000002c _read_r
00000116 g     F .text	0000001a .hidden __riscv_save_7
00000ed0 g     F .text	00000038 OLED_RESET
00001546 g     F .text	0000001e RCC_APB1PeriphClockCmd
20000240 g     O .data	00000001 waveform_select
0000119e  w      .text	00000000 Ecall_M_Mode_Handler
20004800 g       .stack	00000000 _heap_end
0000369a g     F .text	0000000c _isatty
2000025c g     O .data	00000004 _global_impure_ptr
0000014a g     F .text	00000016 .hidden __riscv_restore_5
00003598 g     F .text	00000058 _realloc_r
0000119e  w      .text	00000000 DMA1_Channel4_IRQHandler
0000119e  w      .text	00000000 ADC1_IRQHandler
000017c4 g     F .text	00000026 _sbrk
0000119e  w      .text	00000000 TIM2_BRK_IRQHandler
0000229a g     F .text	0000001c strtol
0000014a g     F .text	00000016 .hidden __riscv_restore_6
2000023c g     O .data	00000004 uname
0000119e  w      .text	00000000 USART3_IRQHandler
000012b8 g     F .text	0000000a EXTI_ClearITPendingBit
20000318 g       .bss	00000000 _ebss
0000119e  w      .text	00000000 DMA1_Channel7_IRQHandler
00001ec0 g     F .text	0000000c calloc
0000172e g     F .text	00000026 Delay_Init
0000119e  w      .text	00000000 USBPDWakeUp_IRQHandler
0000119e  w      .text	00000000 EXTI15_8_IRQHandler
20000270 g     O .bss	00000001 ind
00001450 g     F .text	0000000e GPIO_SetBits
00000f5a g     F .text	0000006a OLED_clear_line
00000108 g     F .text	00000028 .hidden __riscv_save_9
00003f4c g     O .text	00000020 __sf_fake_stderr
00000116 g     F .text	0000001a .hidden __riscv_save_4
20000274 g     O .bss	00000002 phase
0000119e  w      .text	00000000 I2C1_EV_IRQHandler
000005c2 g     F .text	000001ce USART4_IRQHandler
00002516 g     F .text	000000e4 __ssputs_r
00001616 g     F .text	00000018 TIM_GetITStatus
000014ea g     F .text	0000003e RCC_GetClocksFreq
0000119e  w      .text	00000000 DMA1_Channel6_IRQHandler
00001e4c g     F .text	0000006e .hidden __clzsi2
00002888 g     F .text	00000040 __sfputs_r
00003488 g     F .text	00000018 memchr
0000163a g     F .text	0000008e USART_Init
00001efc g     F .text	000000a4 _free_r
0000119e  w      .text	00000000 TIM3_IRQHandler
00000790 g     F .text	00000088 TIM1_Init
00000130 g     F .text	0000000c .hidden __riscv_save_3
0000119e  w      .text	00000000 TIM1_TRG_COM_IRQHandler
20000250 g     O .data	00000004 CFGHR_tmpC
0000119e  w      .text	00000000 DMA1_Channel1_IRQHandler
00000000 g       .init	00000000 _start
20000028 g     O .data	00000010 AHBPrescTable
0000212e g     F .text	00000034 strstr
000036a6 g     F .text	0000000c _lseek
20000280 g     O .bss	00000004 buffer
000016de g     F .text	00000036 USART_ITConfig
00001230 g     F .text	0000006a EXTI_Init
20000271 g     O .bss	00000001 inv
00003800 g     O .text	0000001c allStep_bin
0000119e  w      .text	00000000 DMA1_Channel8_IRQHandler
20000236 g     O .data	00000001 set_time
0000145e g     F .text	00000004 GPIO_ResetBits
000031b4 g     F .text	00000028 _close_r
20000000 g       .dalign	00000000 _data_vma
00000522 g     F .text	000000a0 InitUSART4
000009fc g     F .text	00000026 prnInfo
000030b4 g     F .text	00000100 __swsetup_r
0000119e  w      .text	00000000 PIOC_IRQHandler
000023d4 g     F .text	0000009c __sfp
00000f08 g     F .text	00000052 I2C_WriteDatas
00001462 g     F .text	0000002e GPIO_EXTILineConfig
00000108 g     F .text	00000028 .hidden __riscv_save_10
00002f00 g     F .text	0000002c __sread
20000224 g     O .data	00000004 eol
00002512 g     F .text	00000002 __malloc_lock
0000014a g     F .text	00000016 .hidden __riscv_restore_4
00000140 g     F .text	00000020 .hidden __riscv_restore_8
0000330e g     F .text	00000068 _fflush_r
00000116 g     F .text	0000001a .hidden __riscv_save_6
00001ed6 g     F .text	00000026 _calloc_r
0000129a g     F .text	0000001e EXTI_GetITStatus
00000fc4 g     F .text	00000022 OLED_Clear
00003f6c g     O .text	00000020 __sf_fake_stdin
00000160 g     F .text	000000a8 memset
00000140 g     F .text	00000020 .hidden __riscv_restore_9
0000014a g     F .text	00000016 .hidden __riscv_restore_7
00000a22 g     F .text	000004ae main
00002fa4 g     F .text	00000006 __sclose
00001fa0 g     F .text	000000ce _malloc_r
00000414 g     F .text	00000084 TIM2_Encoder_Init
00003068 g     F .text	0000001e __ascii_wctomb
0000119e  w      .text	00000000 DMA1_Channel5_IRQHandler
00001754 g     F .text	00000036 Delay_Ms
00001a98 g     F .text	00000290 .hidden __mulsf3
2000024c g     O .data	00000004 CFGHR_tmpB
20000230 g     O .data	00000004 menu_idx
00001122 g     F .text	00000042 SystemInit
000004ba g     F .text	00000068 EXTI_PA2_Init
0000206e g     F .text	00000040 iprintf
000020d8 g     F .text	00000044 sprintf
00003e4c g     O .text	00000100 .hidden __clz_tab
00000000 g       .init	00000000 _sinit
00003086 g     F .text	0000002e _write_r
0000119e  w      .text	00000000 DMA1_Channel3_IRQHandler
000002a4 g     F .text	00000020 formName
00002b52 g     F .text	0000010c _printf_common
20000258 g     O .data	00000004 _impure_ptr
00000884 g     F .text	0000004c TIM1_UP_IRQHandler
000031dc g     F .text	00000132 __sflush_r
000025fa g     F .text	00000268 _svfiprintf_r
0000119e  w      .text	00000000 WWDG_IRQHandler
000024e0 g     F .text	00000032 __ascii_mbtowc
0000119e  w      .text	00000000 Ecall_U_Mode_Handler
20000294 g     O .bss	00000040 RxBuff
20000238 g     O .data	00000004 step
20005000 g       .stack	00000000 _eusrstack
00000130 g     F .text	0000000c .hidden __riscv_save_2
0000119e  w      .text	00000000 SW_Handler
0000119e  w      .text	00000000 TIM1_BRK_IRQHandler
000033a2 g     F .text	00000056 __swhatbuf_r
00001714 g     F .text	00000008 USART_SendData
0000119e  w      .text	00000000 OPA_IRQHandler
00000116 g     F .text	0000001a .hidden __riscv_save_5
0000178a g     F .text	0000003a _write
20000260 g       .data	00000000 _edata
20000318 g       .bss	00000000 _end
000003d0 g     F .text	00000032 AD9833_Init
000015aa g     F .text	00000056 TIM_TimeBaseInit
000040fc g       .dlalign	00000000 _data_lma
0000119e  w      .text	00000000 USART2_IRQHandler
00002f2c g     F .text	00000048 __swrite
000028c8 g     F .text	0000028a _vfiprintf_r
00002470 g     F .text	0000006a _fwalk_reent
00001164 g     F .text	0000003a SystemCoreClockUpdate
00001d7e g     F .text	000000ce .hidden __floatunsisf
0000119e  w      .text	00000000 DMA1_Channel2_IRQHandler
00003f8c g     O .text	00000020 __sf_fake_stdout
000020d8 g     F .text	00000044 siprintf
0000013c g     F .text	00000024 .hidden __riscv_restore_12
00003ff8 g     O .text	00000101 _ctype_
000036b2 g     F .text	0000000c _read
000011a0  w      .text	00000000 handle_reset
00001d28 g     F .text	00000056 .hidden __fixunssfsi
0000119e  w      .text	00000000 FLASH_IRQHandler
00000130 g     F .text	0000000c .hidden __riscv_save_0
0000119e  w      .text	00000000 USBFSWakeUp_IRQHandler
2000021a g     O .data	00000002 LedPin
0000119e  w      .text	00000000 USART1_IRQHandler
000033f8 g     F .text	00000090 __smakebuf_r
0000211c g     F .text	00000012 strlen
00002c5e g     F .text	000002a2 _printf_i
000024da g     F .text	00000006 __locale_ctype_ptr_l
20000290 g     O .bss	00000004 __malloc_sbrk_start
00001044 g     F .text	0000001e OLED_calcx
0000119e  w      .text	00000000 I2C1_ER_IRQHandler
000002c4 g     F .text	0000005e AD9833_SetWaveform
00001564 g     F .text	00000032 SPI_Init
00001490 g     F .text	00000006 NVIC_PriorityGroupConfig
2000028c g     O .bss	00000004 __malloc_free_list
00000154 g     F .text	0000000c .hidden __riscv_restore_1
000028c8 g     F .text	0000028a _vfprintf_r
200000a8 g     O .data	0000016c __global_locale
0000398c g     O .text	00000400 font8x8
20000268 g     O .bss	00000008 flo
00003682 g     F .text	0000000c _close
00001ecc g     F .text	0000000a free
20000278 g     O .bss	00000004 seconda



Disassembly of section .init:

00000000 <_sinit>:
   0:	1a00106f          	j	11a0 <handle_reset>

Disassembly of section .vector:

00000004 <_vector_base>:
	...
   c:	0402                	c.slli64	s0
   e:	0000                	unimp
  10:	0404                	addi	s1,sp,512
  12:	0000                	unimp
  14:	0000                	unimp
  16:	0000                	unimp
  18:	119e                	slli	gp,gp,0x27
	...
  22:	0000                	unimp
  24:	119e                	slli	gp,gp,0x27
  26:	0000                	unimp
  28:	119e                	slli	gp,gp,0x27
	...
  32:	0000                	unimp
  34:	119e                	slli	gp,gp,0x27
  36:	0000                	unimp
  38:	0000                	unimp
  3a:	0000                	unimp
  3c:	119e                	slli	gp,gp,0x27
  3e:	0000                	unimp
  40:	0000                	unimp
  42:	0000                	unimp
  44:	119e                	slli	gp,gp,0x27
  46:	0000                	unimp
  48:	119e                	slli	gp,gp,0x27
  4a:	0000                	unimp
  4c:	119e                	slli	gp,gp,0x27
  4e:	0000                	unimp
  50:	0000                	unimp
  52:	0000                	unimp
  54:	0498                	addi	a4,sp,576
  56:	0000                	unimp
  58:	119e                	slli	gp,gp,0x27
  5a:	0000                	unimp
  5c:	119e                	slli	gp,gp,0x27
  5e:	0000                	unimp
  60:	119e                	slli	gp,gp,0x27
  62:	0000                	unimp
  64:	119e                	slli	gp,gp,0x27
  66:	0000                	unimp
  68:	119e                	slli	gp,gp,0x27
  6a:	0000                	unimp
  6c:	119e                	slli	gp,gp,0x27
  6e:	0000                	unimp
  70:	119e                	slli	gp,gp,0x27
  72:	0000                	unimp
  74:	119e                	slli	gp,gp,0x27
  76:	0000                	unimp
  78:	119e                	slli	gp,gp,0x27
  7a:	0000                	unimp
  7c:	119e                	slli	gp,gp,0x27
  7e:	0000                	unimp
  80:	119e                	slli	gp,gp,0x27
  82:	0000                	unimp
  84:	119e                	slli	gp,gp,0x27
  86:	0000                	unimp
  88:	119e                	slli	gp,gp,0x27
  8a:	0000                	unimp
  8c:	119e                	slli	gp,gp,0x27
  8e:	0000                	unimp
  90:	0884                	addi	s1,sp,80
  92:	0000                	unimp
  94:	119e                	slli	gp,gp,0x27
  96:	0000                	unimp
  98:	119e                	slli	gp,gp,0x27
  9a:	0000                	unimp
  9c:	119e                	slli	gp,gp,0x27
  9e:	0000                	unimp
  a0:	119e                	slli	gp,gp,0x27
  a2:	0000                	unimp
  a4:	119e                	slli	gp,gp,0x27
  a6:	0000                	unimp
  a8:	119e                	slli	gp,gp,0x27
  aa:	0000                	unimp
  ac:	119e                	slli	gp,gp,0x27
  ae:	0000                	unimp
  b0:	05c2                	slli	a1,a1,0x10
  b2:	0000                	unimp
  b4:	119e                	slli	gp,gp,0x27
  b6:	0000                	unimp
  b8:	119e                	slli	gp,gp,0x27
  ba:	0000                	unimp
  bc:	119e                	slli	gp,gp,0x27
  be:	0000                	unimp
  c0:	119e                	slli	gp,gp,0x27
  c2:	0000                	unimp
  c4:	119e                	slli	gp,gp,0x27
  c6:	0000                	unimp
  c8:	119e                	slli	gp,gp,0x27
  ca:	0000                	unimp
  cc:	119e                	slli	gp,gp,0x27
  ce:	0000                	unimp
  d0:	119e                	slli	gp,gp,0x27
  d2:	0000                	unimp
  d4:	119e                	slli	gp,gp,0x27
  d6:	0000                	unimp
  d8:	119e                	slli	gp,gp,0x27
  da:	0000                	unimp
  dc:	119e                	slli	gp,gp,0x27
	...

Disassembly of section .text:

00000100 <__riscv_save_12>:
     100:	7139                	addi	sp,sp,-64
     102:	4301                	li	t1,0
     104:	c66e                	sw	s11,12(sp)
     106:	a019                	j	10c <__riscv_save_10+0x4>

00000108 <__riscv_save_10>:
     108:	7139                	addi	sp,sp,-64
     10a:	5341                	li	t1,-16
     10c:	c86a                	sw	s10,16(sp)
     10e:	ca66                	sw	s9,20(sp)
     110:	cc62                	sw	s8,24(sp)
     112:	ce5e                	sw	s7,28(sp)
     114:	a019                	j	11a <__riscv_save_4+0x4>

00000116 <__riscv_save_4>:
     116:	7139                	addi	sp,sp,-64
     118:	5301                	li	t1,-32
     11a:	d05a                	sw	s6,32(sp)
     11c:	d256                	sw	s5,36(sp)
     11e:	d452                	sw	s4,40(sp)
     120:	d64e                	sw	s3,44(sp)
     122:	d84a                	sw	s2,48(sp)
     124:	da26                	sw	s1,52(sp)
     126:	dc22                	sw	s0,56(sp)
     128:	de06                	sw	ra,60(sp)
     12a:	40610133          	sub	sp,sp,t1
     12e:	8282                	jr	t0

00000130 <__riscv_save_0>:
     130:	1141                	addi	sp,sp,-16
     132:	c04a                	sw	s2,0(sp)
     134:	c226                	sw	s1,4(sp)
     136:	c422                	sw	s0,8(sp)
     138:	c606                	sw	ra,12(sp)
     13a:	8282                	jr	t0

0000013c <__riscv_restore_12>:
     13c:	4db2                	lw	s11,12(sp)
     13e:	0141                	addi	sp,sp,16

00000140 <__riscv_restore_10>:
     140:	4d02                	lw	s10,0(sp)
     142:	4c92                	lw	s9,4(sp)
     144:	4c22                	lw	s8,8(sp)
     146:	4bb2                	lw	s7,12(sp)
     148:	0141                	addi	sp,sp,16

0000014a <__riscv_restore_4>:
     14a:	4b02                	lw	s6,0(sp)
     14c:	4a92                	lw	s5,4(sp)
     14e:	4a22                	lw	s4,8(sp)
     150:	49b2                	lw	s3,12(sp)
     152:	0141                	addi	sp,sp,16

00000154 <__riscv_restore_0>:
     154:	4902                	lw	s2,0(sp)
     156:	4492                	lw	s1,4(sp)
     158:	4422                	lw	s0,8(sp)
     15a:	40b2                	lw	ra,12(sp)
     15c:	0141                	addi	sp,sp,16
     15e:	8082                	ret

00000160 <memset>:
     160:	433d                	li	t1,15
     162:	872a                	mv	a4,a0
     164:	02c37363          	bgeu	t1,a2,18a <memset+0x2a>
     168:	00f77793          	andi	a5,a4,15
     16c:	efbd                	bnez	a5,1ea <memset+0x8a>
     16e:	e5ad                	bnez	a1,1d8 <memset+0x78>
     170:	ff067693          	andi	a3,a2,-16
     174:	8a3d                	andi	a2,a2,15
     176:	96ba                	add	a3,a3,a4
     178:	c30c                	sw	a1,0(a4)
     17a:	c34c                	sw	a1,4(a4)
     17c:	c70c                	sw	a1,8(a4)
     17e:	c74c                	sw	a1,12(a4)
     180:	0741                	addi	a4,a4,16
     182:	fed76be3          	bltu	a4,a3,178 <memset+0x18>
     186:	e211                	bnez	a2,18a <memset+0x2a>
     188:	8082                	ret
     18a:	40c306b3          	sub	a3,t1,a2
     18e:	068a                	slli	a3,a3,0x2
     190:	00000297          	auipc	t0,0x0
     194:	9696                	add	a3,a3,t0
     196:	00a68067          	jr	10(a3)
     19a:	00b70723          	sb	a1,14(a4)
     19e:	00b706a3          	sb	a1,13(a4)
     1a2:	00b70623          	sb	a1,12(a4)
     1a6:	00b705a3          	sb	a1,11(a4)
     1aa:	00b70523          	sb	a1,10(a4)
     1ae:	00b704a3          	sb	a1,9(a4)
     1b2:	00b70423          	sb	a1,8(a4)
     1b6:	00b703a3          	sb	a1,7(a4)
     1ba:	00b70323          	sb	a1,6(a4)
     1be:	00b702a3          	sb	a1,5(a4)
     1c2:	00b70223          	sb	a1,4(a4)
     1c6:	00b701a3          	sb	a1,3(a4)
     1ca:	00b70123          	sb	a1,2(a4)
     1ce:	00b700a3          	sb	a1,1(a4)
     1d2:	00b70023          	sb	a1,0(a4)
     1d6:	8082                	ret
     1d8:	0ff5f593          	andi	a1,a1,255
     1dc:	00859693          	slli	a3,a1,0x8
     1e0:	8dd5                	or	a1,a1,a3
     1e2:	01059693          	slli	a3,a1,0x10
     1e6:	8dd5                	or	a1,a1,a3
     1e8:	b761                	j	170 <memset+0x10>
     1ea:	00279693          	slli	a3,a5,0x2
     1ee:	00000297          	auipc	t0,0x0
     1f2:	9696                	add	a3,a3,t0
     1f4:	8286                	mv	t0,ra
     1f6:	fa8680e7          	jalr	-88(a3)
     1fa:	8096                	mv	ra,t0
     1fc:	17c1                	addi	a5,a5,-16
     1fe:	8f1d                	sub	a4,a4,a5
     200:	963e                	add	a2,a2,a5
     202:	f8c374e3          	bgeu	t1,a2,18a <memset+0x2a>
     206:	b7a5                	j	16e <memset+0xe>

00000208 <AD9833_WriteRegister>:
     208:	f29ff2ef          	jal	t0,130 <__riscv_save_0>
     20c:	40011437          	lui	s0,0x40011
     210:	84aa                	mv	s1,a0
     212:	45c1                	li	a1,16
     214:	80040513          	addi	a0,s0,-2048 # 40010800 <_eusrstack+0x2000b800>
     218:	246010ef          	jal	ra,145e <GPIO_ResetBits>
     21c:	0084d593          	srli	a1,s1,0x8
     220:	40013537          	lui	a0,0x40013
     224:	372010ef          	jal	ra,1596 <SPI_I2S_SendData>
     228:	0ff4f593          	andi	a1,s1,255
     22c:	40013537          	lui	a0,0x40013
     230:	366010ef          	jal	ra,1596 <SPI_I2S_SendData>
     234:	45c1                	li	a1,16
     236:	80040513          	addi	a0,s0,-2048
     23a:	216010ef          	jal	ra,1450 <GPIO_SetBits>
     23e:	bf19                	j	154 <__riscv_restore_0>

00000240 <AD9833_WriteCfgReg>:
     240:	ef1ff2ef          	jal	t0,130 <__riscv_save_0>
     244:	200007b7          	lui	a5,0x20000
     248:	2187c403          	lbu	s0,536(a5) # 20000218 <_waveform>
     24c:	84b1c703          	lbu	a4,-1973(gp) # 20000263 <_sleep_mode>
     250:	8481c783          	lbu	a5,-1976(gp) # 20000260 <_edata>
     254:	8f41                	or	a4,a4,s0
     256:	4401                	li	s0,0
     258:	c781                	beqz	a5,260 <AD9833_WriteCfgReg+0x20>
     25a:	6785                	lui	a5,0x1
     25c:	80078413          	addi	s0,a5,-2048 # 800 <__stack_size>
     260:	8491c783          	lbu	a5,-1975(gp) # 20000261 <_phase_source>
     264:	8c59                	or	s0,s0,a4
     266:	00f037b3          	snez	a5,a5
     26a:	07aa                	slli	a5,a5,0xa
     26c:	8c5d                	or	s0,s0,a5
     26e:	84a1c783          	lbu	a5,-1974(gp) # 20000262 <_reset_state>
     272:	00f037b3          	snez	a5,a5
     276:	07a2                	slli	a5,a5,0x8
     278:	8c5d                	or	s0,s0,a5
     27a:	6789                	lui	a5,0x2
     27c:	8c5d                	or	s0,s0,a5
     27e:	84c1c783          	lbu	a5,-1972(gp) # 20000264 <dbg>
     282:	cf91                	beqz	a5,29e <AD9833_WriteCfgReg+0x5e>
     284:	80c1a703          	lw	a4,-2036(gp) # 20000224 <eol>
     288:	658d                	lui	a1,0x3
     28a:	00003537          	lui	a0,0x3
     28e:	86a2                	mv	a3,s0
     290:	8622                	mv	a2,s0
     292:	74858593          	addi	a1,a1,1864 # 3748 <__func__.5508>
     296:	72450513          	addi	a0,a0,1828 # 3724 <_read+0x72>
     29a:	5d5010ef          	jal	ra,206e <iprintf>
     29e:	8522                	mv	a0,s0
     2a0:	37a5                	jal	208 <AD9833_WriteRegister>
     2a2:	bd4d                	j	154 <__riscv_restore_0>

000002a4 <formName>:
     2a4:	4789                	li	a5,2
     2a6:	00a7ea63          	bltu	a5,a0,2ba <formName+0x16>
     2aa:	00251793          	slli	a5,a0,0x2
     2ae:	650d                	lui	a0,0x3
     2b0:	73c50513          	addi	a0,a0,1852 # 373c <CSWTCH.19>
     2b4:	953e                	add	a0,a0,a5
     2b6:	4108                	lw	a0,0(a0)
     2b8:	8082                	ret
     2ba:	00003537          	lui	a0,0x3
     2be:	78450513          	addi	a0,a0,1924 # 3784 <__func__.5523+0x14>
     2c2:	8082                	ret

000002c4 <AD9833_SetWaveform>:
     2c4:	e6dff2ef          	jal	t0,130 <__riscv_save_0>
     2c8:	4789                	li	a5,2
     2ca:	862a                	mv	a2,a0
     2cc:	02f51b63          	bne	a0,a5,302 <AD9833_SetWaveform+0x3e>
     2d0:	200007b7          	lui	a5,0x20000
     2d4:	20078c23          	sb	zero,536(a5) # 20000218 <_waveform>
     2d8:	84c1c783          	lbu	a5,-1972(gp) # 20000264 <dbg>
     2dc:	c38d                	beqz	a5,2fe <AD9833_SetWaveform+0x3a>
     2de:	200007b7          	lui	a5,0x20000
     2e2:	2187c703          	lbu	a4,536(a5) # 20000218 <_waveform>
     2e6:	80c1a783          	lw	a5,-2036(gp) # 20000224 <eol>
     2ea:	658d                	lui	a1,0x3
     2ec:	00003537          	lui	a0,0x3
     2f0:	86ba                	mv	a3,a4
     2f2:	75c58593          	addi	a1,a1,1884 # 375c <__func__.5512>
     2f6:	70050513          	addi	a0,a0,1792 # 3700 <_read+0x4e>
     2fa:	575010ef          	jal	ra,206e <iprintf>
     2fe:	3789                	jal	240 <AD9833_WriteCfgReg>
     300:	bd91                	j	154 <__riscv_restore_0>
     302:	4705                	li	a4,1
     304:	00e51963          	bne	a0,a4,316 <AD9833_SetWaveform+0x52>
     308:	200007b7          	lui	a5,0x20000
     30c:	02800713          	li	a4,40
     310:	20e78c23          	sb	a4,536(a5) # 20000218 <_waveform>
     314:	b7d1                	j	2d8 <AD9833_SetWaveform+0x14>
     316:	f169                	bnez	a0,2d8 <AD9833_SetWaveform+0x14>
     318:	20000737          	lui	a4,0x20000
     31c:	20f70c23          	sb	a5,536(a4) # 20000218 <_waveform>
     320:	bf65                	j	2d8 <AD9833_SetWaveform+0x14>

00000322 <AD9833_SetPhase>:
     322:	e0fff2ef          	jal	t0,130 <__riscv_save_0>
     326:	16800793          	li	a5,360
     32a:	00a7f463          	bgeu	a5,a0,332 <AD9833_SetPhase+0x10>
     32e:	02f57533          	remu	a0,a0,a5
     332:	47ad                	li	a5,11
     334:	02f50533          	mul	a0,a0,a5
     338:	77f1                	lui	a5,0xffffc
     33a:	8d5d                	or	a0,a0,a5
     33c:	0542                	slli	a0,a0,0x10
     33e:	8141                	srli	a0,a0,0x10
     340:	35e1                	jal	208 <AD9833_WriteRegister>
     342:	bd09                	j	154 <__riscv_restore_0>

00000344 <AD9833_SetFrequency>:
     344:	dedff2ef          	jal	t0,130 <__riscv_save_0>
     348:	00bec7b7          	lui	a5,0xbec
     34c:	c2078793          	addi	a5,a5,-992 # bebc20 <_data_lma+0xbe7b24>
     350:	1141                	addi	sp,sp,-16
     352:	863e                	mv	a2,a5
     354:	00a7e363          	bltu	a5,a0,35a <AD9833_SetFrequency+0x16>
     358:	862a                	mv	a2,a0
     35a:	8532                	mv	a0,a2
     35c:	c632                	sw	a2,12(sp)
     35e:	221010ef          	jal	ra,1d7e <__floatunsisf>
     362:	000037b7          	lui	a5,0x3
     366:	6c07a583          	lw	a1,1728(a5) # 36c0 <_read+0xe>
     36a:	72e010ef          	jal	ra,1a98 <__mulsf3>
     36e:	000037b7          	lui	a5,0x3
     372:	6c47a583          	lw	a1,1732(a5) # 36c4 <_read+0x12>
     376:	474010ef          	jal	ra,17ea <__divsf3>
     37a:	1af010ef          	jal	ra,1d28 <__fixunssfsi>
     37e:	00150713          	addi	a4,a0,1
     382:	01271793          	slli	a5,a4,0x12
     386:	83c9                	srli	a5,a5,0x12
     388:	6811                	lui	a6,0x4
     38a:	00e75493          	srli	s1,a4,0xe
     38e:	0107e433          	or	s0,a5,a6
     392:	c43a                	sw	a4,8(sp)
     394:	0104e4b3          	or	s1,s1,a6
     398:	3565                	jal	240 <AD9833_WriteCfgReg>
     39a:	8522                	mv	a0,s0
     39c:	04c2                	slli	s1,s1,0x10
     39e:	35ad                	jal	208 <AD9833_WriteRegister>
     3a0:	80c1                	srli	s1,s1,0x10
     3a2:	8526                	mv	a0,s1
     3a4:	3595                	jal	208 <AD9833_WriteRegister>
     3a6:	84c1c783          	lbu	a5,-1972(gp) # 20000264 <dbg>
     3aa:	4722                	lw	a4,8(sp)
     3ac:	4632                	lw	a2,12(sp)
     3ae:	cf99                	beqz	a5,3cc <AD9833_SetFrequency+0x88>
     3b0:	80c1a883          	lw	a7,-2036(gp) # 20000224 <eol>
     3b4:	658d                	lui	a1,0x3
     3b6:	00003537          	lui	a0,0x3
     3ba:	8826                	mv	a6,s1
     3bc:	87a2                	mv	a5,s0
     3be:	86ba                	mv	a3,a4
     3c0:	77058593          	addi	a1,a1,1904 # 3770 <__func__.5523>
     3c4:	6c850513          	addi	a0,a0,1736 # 36c8 <_read+0x16>
     3c8:	4a7010ef          	jal	ra,206e <iprintf>
     3cc:	0141                	addi	sp,sp,16
     3ce:	b359                	j	154 <__riscv_restore_0>

000003d0 <AD9833_Init>:
     3d0:	d61ff2ef          	jal	t0,130 <__riscv_save_0>
     3d4:	1141                	addi	sp,sp,-16
     3d6:	4785                	li	a5,1
     3d8:	84a18413          	addi	s0,gp,-1974 # 20000262 <_reset_state>
     3dc:	a01c                	sb	a5,0(s0)
     3de:	c232                	sw	a2,4(sp)
     3e0:	c42e                	sw	a1,8(sp)
     3e2:	c62a                	sw	a0,12(sp)
     3e4:	3db1                	jal	240 <AD9833_WriteCfgReg>
     3e6:	4532                	lw	a0,12(sp)
     3e8:	3df1                	jal	2c4 <AD9833_SetWaveform>
     3ea:	3d99                	jal	240 <AD9833_WriteCfgReg>
     3ec:	45a2                	lw	a1,8(sp)
     3ee:	852e                	mv	a0,a1
     3f0:	3f91                	jal	344 <AD9833_SetFrequency>
     3f2:	4612                	lw	a2,4(sp)
     3f4:	8532                	mv	a0,a2
     3f6:	3735                	jal	322 <AD9833_SetPhase>
     3f8:	00040023          	sb	zero,0(s0)
     3fc:	3591                	jal	240 <AD9833_WriteCfgReg>
     3fe:	0141                	addi	sp,sp,16
     400:	bb91                	j	154 <__riscv_restore_0>

00000402 <NMI_Handler>:
     402:	a001                	j	402 <NMI_Handler>

00000404 <HardFault_Handler>:
     404:	beef07b7          	lui	a5,0xbeef0
     408:	e000e737          	lui	a4,0xe000e
     40c:	08078793          	addi	a5,a5,128 # beef0080 <_eusrstack+0x9eeeb080>
     410:	c73c                	sw	a5,72(a4)
     412:	a001                	j	412 <HardFault_Handler+0xe>

00000414 <TIM2_Encoder_Init>:
     414:	d1dff2ef          	jal	t0,130 <__riscv_save_0>
     418:	1101                	addi	sp,sp,-32
     41a:	4585                	li	a1,1
     41c:	4511                	li	a0,4
     41e:	10a010ef          	jal	ra,1528 <RCC_APB2PeriphClockCmd>
     422:	4585                	li	a1,1
     424:	4505                	li	a0,1
     426:	120010ef          	jal	ra,1546 <RCC_APB1PeriphClockCmd>
     42a:	40011437          	lui	s0,0x40011
     42e:	4761                	li	a4,24
     430:	4785                	li	a5,1
     432:	084c                	addi	a1,sp,20
     434:	80040513          	addi	a0,s0,-2048 # 40010800 <_eusrstack+0x2000b800>
     438:	ce3a                	sw	a4,28(sp)
     43a:	ca3e                	sw	a5,20(sp)
     43c:	cc3e                	sw	a5,24(sp)
     43e:	685000ef          	jal	ra,12c2 <GPIO_Init>
     442:	4789                	li	a5,2
     444:	084c                	addi	a1,sp,20
     446:	80040513          	addi	a0,s0,-2048
     44a:	ca3e                	sw	a5,20(sp)
     44c:	677000ef          	jal	ra,12c2 <GPIO_Init>
     450:	0028                	addi	a0,sp,8
     452:	c402                	sw	zero,8(sp)
     454:	c602                	sw	zero,12(sp)
     456:	00011823          	sh	zero,16(sp)
     45a:	1a6010ef          	jal	ra,1600 <TIM_TimeBaseStructInit>
     45e:	05000793          	li	a5,80
     462:	002c                	addi	a1,sp,8
     464:	40000537          	lui	a0,0x40000
     468:	c63e                	sw	a5,12(sp)
     46a:	c402                	sw	zero,8(sp)
     46c:	13e010ef          	jal	ra,15aa <TIM_TimeBaseInit>
     470:	400007b7          	lui	a5,0x40000
     474:	279a                	lhu	a4,8(a5)
     476:	00176713          	ori	a4,a4,1
     47a:	a79a                	sh	a4,8(a5)
     47c:	2bda                	lhu	a4,20(a5)
     47e:	00176713          	ori	a4,a4,1
     482:	abda                	sh	a4,20(a5)
     484:	7761                	lui	a4,0xffff8
     486:	fff74713          	not	a4,a4
     48a:	b3da                	sh	a4,36(a5)
     48c:	239a                	lhu	a4,0(a5)
     48e:	00176713          	ori	a4,a4,1
     492:	a39a                	sh	a4,0(a5)
     494:	6105                	addi	sp,sp,32
     496:	b97d                	j	154 <__riscv_restore_0>

00000498 <EXTI7_0_IRQHandler>:
     498:	4511                	li	a0,4
     49a:	601000ef          	jal	ra,129a <EXTI_GetITStatus>
     49e:	cd01                	beqz	a0,4b6 <EXTI7_0_IRQHandler+0x1e>
     4a0:	84d1c783          	lbu	a5,-1971(gp) # 20000265 <evt>
     4a4:	0ff7f793          	andi	a5,a5,255
     4a8:	e781                	bnez	a5,4b0 <EXTI7_0_IRQHandler+0x18>
     4aa:	4789                	li	a5,2
     4ac:	84f186a3          	sb	a5,-1971(gp) # 20000265 <evt>
     4b0:	4511                	li	a0,4
     4b2:	607000ef          	jal	ra,12b8 <EXTI_ClearITPendingBit>
     4b6:	30200073          	mret

000004ba <EXTI_PA2_Init>:
     4ba:	c77ff2ef          	jal	t0,130 <__riscv_save_0>
     4be:	7179                	addi	sp,sp,-48
     4c0:	40021737          	lui	a4,0x40021
     4c4:	cc02                	sw	zero,24(sp)
     4c6:	d002                	sw	zero,32(sp)
     4c8:	d202                	sw	zero,36(sp)
     4ca:	d402                	sw	zero,40(sp)
     4cc:	d602                	sw	zero,44(sp)
     4ce:	4f1c                	lw	a5,24(a4)
     4d0:	c602                	sw	zero,12(sp)
     4d2:	c802                	sw	zero,16(sp)
     4d4:	0047e793          	ori	a5,a5,4
     4d8:	40011537          	lui	a0,0x40011
     4dc:	cf1c                	sw	a5,24(a4)
     4de:	4411                	li	s0,4
     4e0:	04800793          	li	a5,72
     4e4:	084c                	addi	a1,sp,20
     4e6:	80050513          	addi	a0,a0,-2048 # 40010800 <_eusrstack+0x2000b800>
     4ea:	ce3e                	sw	a5,28(sp)
     4ec:	ca22                	sw	s0,20(sp)
     4ee:	5d5000ef          	jal	ra,12c2 <GPIO_Init>
     4f2:	4589                	li	a1,2
     4f4:	4501                	li	a0,0
     4f6:	76d000ef          	jal	ra,1462 <GPIO_EXTILineConfig>
     4fa:	47a1                	li	a5,8
     4fc:	d022                	sw	s0,32(sp)
     4fe:	1008                	addi	a0,sp,32
     500:	4405                	li	s0,1
     502:	d43e                	sw	a5,40(sp)
     504:	d622                	sw	s0,44(sp)
     506:	d202                	sw	zero,36(sp)
     508:	529000ef          	jal	ra,1230 <EXTI_Init>
     50c:	11400793          	li	a5,276
     510:	867c                	sh	a5,12(sp)
     512:	0068                	addi	a0,sp,12
     514:	4789                	li	a5,2
     516:	875c                	sb	a5,14(sp)
     518:	c822                	sw	s0,16(sp)
     51a:	77d000ef          	jal	ra,1496 <NVIC_Init>
     51e:	6145                	addi	sp,sp,48
     520:	b915                	j	154 <__riscv_restore_0>

00000522 <InitUSART4>:
     522:	c0fff2ef          	jal	t0,130 <__riscv_save_0>
     526:	1101                	addi	sp,sp,-32
     528:	c802                	sw	zero,16(sp)
     52a:	ca02                	sw	zero,20(sp)
     52c:	cc02                	sw	zero,24(sp)
     52e:	ce02                	sw	zero,28(sp)
     530:	400217b7          	lui	a5,0x40021
     534:	4f98                	lw	a4,24(a5)
     536:	000806b7          	lui	a3,0x80
     53a:	40011437          	lui	s0,0x40011
     53e:	00876713          	ori	a4,a4,8
     542:	cf98                	sw	a4,24(a5)
     544:	4fd8                	lw	a4,28(a5)
     546:	892a                	mv	s2,a0
     548:	44e1                	li	s1,24
     54a:	8f55                	or	a4,a4,a3
     54c:	cfd8                	sw	a4,28(a5)
     54e:	40010737          	lui	a4,0x40010
     552:	435c                	lw	a5,4(a4)
     554:	669d                	lui	a3,0x7
     556:	004c                	addi	a1,sp,4
     558:	8fd5                	or	a5,a5,a3
     55a:	c35c                	sw	a5,4(a4)
     55c:	c0040513          	addi	a0,s0,-1024 # 40010c00 <_eusrstack+0x2000bc00>
     560:	4785                	li	a5,1
     562:	c23e                	sw	a5,4(sp)
     564:	c43e                	sw	a5,8(sp)
     566:	c626                	sw	s1,12(sp)
     568:	55b000ef          	jal	ra,12c2 <GPIO_Init>
     56c:	4789                	li	a5,2
     56e:	004c                	addi	a1,sp,4
     570:	c0040513          	addi	a0,s0,-1024
     574:	c23e                	sw	a5,4(sp)
     576:	40005437          	lui	s0,0x40005
     57a:	c626                	sw	s1,12(sp)
     57c:	547000ef          	jal	ra,12c2 <GPIO_Init>
     580:	000c07b7          	lui	a5,0xc0
     584:	080c                	addi	a1,sp,16
     586:	c0040513          	addi	a0,s0,-1024 # 40004c00 <_eusrstack+0x1ffffc00>
     58a:	cc3e                	sw	a5,24(sp)
     58c:	c84a                	sw	s2,16(sp)
     58e:	ca02                	sw	zero,20(sp)
     590:	00011e23          	sh	zero,28(sp)
     594:	0a6010ef          	jal	ra,163a <USART_Init>
     598:	4605                	li	a2,1
     59a:	c0040513          	addi	a0,s0,-1024
     59e:	52500593          	li	a1,1317
     5a2:	13c010ef          	jal	ra,16de <USART_ITConfig>
     5a6:	6785                	lui	a5,0x1
     5a8:	e000e737          	lui	a4,0xe000e
     5ac:	80078793          	addi	a5,a5,-2048 # 800 <__stack_size>
     5b0:	10f72223          	sw	a5,260(a4) # e000e104 <_eusrstack+0xc0009104>
     5b4:	4585                	li	a1,1
     5b6:	c0040513          	addi	a0,s0,-1024
     5ba:	10e010ef          	jal	ra,16c8 <USART_Cmd>
     5be:	6105                	addi	sp,sp,32
     5c0:	be51                	j	154 <__riscv_restore_0>

000005c2 <USART4_IRQHandler>:
     5c2:	1101                	addi	sp,sp,-32
     5c4:	c652                	sw	s4,12(sp)
     5c6:	40005a37          	lui	s4,0x40005
     5ca:	02000593          	li	a1,32
     5ce:	c00a0513          	addi	a0,s4,-1024 # 40004c00 <_eusrstack+0x1ffffc00>
     5d2:	ce22                	sw	s0,28(sp)
     5d4:	cc26                	sw	s1,24(sp)
     5d6:	ca4a                	sw	s2,20(sp)
     5d8:	c84e                	sw	s3,16(sp)
     5da:	14a010ef          	jal	ra,1724 <USART_GetFlagStatus>
     5de:	0c050763          	beqz	a0,6ac <USART4_IRQHandler+0xea>
     5e2:	c00a0513          	addi	a0,s4,-1024
     5e6:	136010ef          	jal	ra,171c <USART_ReceiveData>
     5ea:	85818913          	addi	s2,gp,-1960 # 20000270 <ind>
     5ee:	00094783          	lbu	a5,0(s2)
     5f2:	87c18713          	addi	a4,gp,-1924 # 20000294 <RxBuff>
     5f6:	07e2                	slli	a5,a5,0x18
     5f8:	87e1                	srai	a5,a5,0x18
     5fa:	97ba                	add	a5,a5,a4
     5fc:	0ff57993          	andi	s3,a0,255
     600:	01378023          	sb	s3,0(a5)
     604:	00094783          	lbu	a5,0(s2)
     608:	c00a0513          	addi	a0,s4,-1024
     60c:	85818493          	addi	s1,gp,-1960 # 20000270 <ind>
     610:	07e2                	slli	a5,a5,0x18
     612:	87e1                	srai	a5,a5,0x18
     614:	973e                	add	a4,a4,a5
     616:	230c                	lbu	a1,0(a4)
     618:	0fc010ef          	jal	ra,1714 <USART_SendData>
     61c:	00094783          	lbu	a5,0(s2)
     620:	87c18713          	addi	a4,gp,-1924 # 20000294 <RxBuff>
     624:	0785                	addi	a5,a5,1
     626:	07e2                	slli	a5,a5,0x18
     628:	87e1                	srai	a5,a5,0x18
     62a:	00f90023          	sb	a5,0(s2)
     62e:	47a9                	li	a5,10
     630:	00f98563          	beq	s3,a5,63a <USART4_IRQHandler+0x78>
     634:	47b5                	li	a5,13
     636:	06f99b63          	bne	s3,a5,6ac <USART4_IRQHandler+0xea>
     63a:	209c                	lbu	a5,0(s1)
     63c:	000035b7          	lui	a1,0x3
     640:	7c858593          	addi	a1,a1,1992 # 37c8 <__func__.5523+0x58>
     644:	0785                	addi	a5,a5,1
     646:	07e2                	slli	a5,a5,0x18
     648:	87e1                	srai	a5,a5,0x18
     64a:	a09c                	sb	a5,0(s1)
     64c:	87c18513          	addi	a0,gp,-1924 # 20000294 <RxBuff>
     650:	97ba                	add	a5,a5,a4
     652:	00078023          	sb	zero,0(a5)
     656:	2d9010ef          	jal	ra,212e <strstr>
     65a:	c509                	beqz	a0,664 <USART4_IRQHandler+0xa2>
     65c:	4705                	li	a4,1
     65e:	84e186a3          	sb	a4,-1971(gp) # 20000265 <evt>
     662:	a82d                	j	69c <USART4_IRQHandler+0xda>
     664:	000035b7          	lui	a1,0x3
     668:	7cc58593          	addi	a1,a1,1996 # 37cc <__func__.5523+0x5c>
     66c:	87c18513          	addi	a0,gp,-1924 # 20000294 <RxBuff>
     670:	2bf010ef          	jal	ra,212e <strstr>
     674:	c119                	beqz	a0,67a <USART4_IRQHandler+0xb8>
     676:	4715                	li	a4,5
     678:	b7dd                	j	65e <USART4_IRQHandler+0x9c>
     67a:	000035b7          	lui	a1,0x3
     67e:	7d058593          	addi	a1,a1,2000 # 37d0 <__func__.5523+0x60>
     682:	87c18513          	addi	a0,gp,-1924 # 20000294 <RxBuff>
     686:	2a9010ef          	jal	ra,212e <strstr>
     68a:	c90d                	beqz	a0,6bc <USART4_IRQHandler+0xfa>
     68c:	0519                	addi	a0,a0,6
     68e:	02d010ef          	jal	ra,1eba <atol>
     692:	80a1a823          	sw	a0,-2032(gp) # 20000228 <epoch>
     696:	4705                	li	a4,1
     698:	80e18f23          	sb	a4,-2018(gp) # 20000236 <set_time>
     69c:	04000613          	li	a2,64
     6a0:	4581                	li	a1,0
     6a2:	87c18513          	addi	a0,gp,-1924 # 20000294 <RxBuff>
     6a6:	00048023          	sb	zero,0(s1)
     6aa:	3c5d                	jal	160 <memset>
     6ac:	4472                	lw	s0,28(sp)
     6ae:	44e2                	lw	s1,24(sp)
     6b0:	4952                	lw	s2,20(sp)
     6b2:	49c2                	lw	s3,16(sp)
     6b4:	4a32                	lw	s4,12(sp)
     6b6:	6105                	addi	sp,sp,32
     6b8:	30200073          	mret
     6bc:	000035b7          	lui	a1,0x3
     6c0:	7d858593          	addi	a1,a1,2008 # 37d8 <__func__.5523+0x68>
     6c4:	87c18513          	addi	a0,gp,-1924 # 20000294 <RxBuff>
     6c8:	267010ef          	jal	ra,212e <strstr>
     6cc:	c901                	beqz	a0,6dc <USART4_IRQHandler+0x11a>
     6ce:	0515                	addi	a0,a0,5
     6d0:	7ea010ef          	jal	ra,1eba <atol>
     6d4:	80a1aa23          	sw	a0,-2028(gp) # 2000022c <freq>
     6d8:	4719                	li	a4,6
     6da:	b751                	j	65e <USART4_IRQHandler+0x9c>
     6dc:	000035b7          	lui	a1,0x3
     6e0:	7e058593          	addi	a1,a1,2016 # 37e0 <__func__.5523+0x70>
     6e4:	87c18513          	addi	a0,gp,-1924 # 20000294 <RxBuff>
     6e8:	247010ef          	jal	ra,212e <strstr>
     6ec:	c901                	beqz	a0,6fc <USART4_IRQHandler+0x13a>
     6ee:	0515                	addi	a0,a0,5
     6f0:	7ca010ef          	jal	ra,1eba <atol>
     6f4:	82a18423          	sb	a0,-2008(gp) # 20000240 <waveform_select>
     6f8:	471d                	li	a4,7
     6fa:	b795                	j	65e <USART4_IRQHandler+0x9c>
     6fc:	000035b7          	lui	a1,0x3
     700:	7e858593          	addi	a1,a1,2024 # 37e8 <__func__.5523+0x78>
     704:	87c18513          	addi	a0,gp,-1924 # 20000294 <RxBuff>
     708:	227010ef          	jal	ra,212e <strstr>
     70c:	cd15                	beqz	a0,748 <USART4_IRQHandler+0x186>
     70e:	0515                	addi	a0,a0,5
     710:	7aa010ef          	jal	ra,1eba <atol>
     714:	46a5                	li	a3,9
     716:	82a1a023          	sw	a0,-2016(gp) # 20000238 <step>
     71a:	84d18793          	addi	a5,gp,-1971 # 20000265 <evt>
     71e:	a394                	sb	a3,0(a5)
     720:	6691                	lui	a3,0x4
     722:	57fd                	li	a5,-1
     724:	84d18713          	addi	a4,gp,-1971 # 20000265 <evt>
     728:	459d                	li	a1,7
     72a:	80068693          	addi	a3,a3,-2048 # 3800 <allStep_bin>
     72e:	0785                	addi	a5,a5,1
     730:	f6b786e3          	beq	a5,a1,69c <USART4_IRQHandler+0xda>
     734:	00279613          	slli	a2,a5,0x2
     738:	9636                	add	a2,a2,a3
     73a:	4210                	lw	a2,0(a2)
     73c:	fec519e3          	bne	a0,a2,72e <USART4_IRQHandler+0x16c>
     740:	86f1a223          	sw	a5,-1948(gp) # 2000027c <step_idx>
     744:	a30c                	sb	a1,0(a4)
     746:	bf99                	j	69c <USART4_IRQHandler+0xda>
     748:	000035b7          	lui	a1,0x3
     74c:	7f058593          	addi	a1,a1,2032 # 37f0 <__func__.5523+0x80>
     750:	87c18513          	addi	a0,gp,-1924 # 20000294 <RxBuff>
     754:	1db010ef          	jal	ra,212e <strstr>
     758:	c915                	beqz	a0,78c <USART4_IRQHandler+0x1ca>
     75a:	00450913          	addi	s2,a0,4
     75e:	000035b7          	lui	a1,0x3
     762:	7f858593          	addi	a1,a1,2040 # 37f8 <__func__.5523+0x88>
     766:	854a                	mv	a0,s2
     768:	1c7010ef          	jal	ra,212e <strstr>
     76c:	c509                	beqz	a0,776 <USART4_IRQHandler+0x1b4>
     76e:	4705                	li	a4,1
     770:	84e18623          	sb	a4,-1972(gp) # 20000264 <dbg>
     774:	b725                	j	69c <USART4_IRQHandler+0xda>
     776:	000035b7          	lui	a1,0x3
     77a:	7fc58593          	addi	a1,a1,2044 # 37fc <__func__.5523+0x8c>
     77e:	854a                	mv	a0,s2
     780:	1af010ef          	jal	ra,212e <strstr>
     784:	c501                	beqz	a0,78c <USART4_IRQHandler+0x1ca>
     786:	84018623          	sb	zero,-1972(gp) # 20000264 <dbg>
     78a:	bf09                	j	69c <USART4_IRQHandler+0xda>
     78c:	4725                	li	a4,9
     78e:	bdc1                	j	65e <USART4_IRQHandler+0x9c>

00000790 <TIM1_Init>:
     790:	9a1ff2ef          	jal	t0,130 <__riscv_save_0>
     794:	400216b7          	lui	a3,0x40021
     798:	4e9c                	lw	a5,24(a3)
     79a:	6705                	lui	a4,0x1
     79c:	1101                	addi	sp,sp,-32
     79e:	80070713          	addi	a4,a4,-2048 # 800 <__stack_size>
     7a2:	8fd9                	or	a5,a5,a4
     7a4:	00011c23          	sh	zero,24(sp)
     7a8:	00011e23          	sh	zero,28(sp)
     7ac:	c602                	sw	zero,12(sp)
     7ae:	c802                	sw	zero,16(sp)
     7b0:	00011b23          	sh	zero,22(sp)
     7b4:	00011d23          	sh	zero,26(sp)
     7b8:	ce9c                	sw	a5,24(a3)
     7ba:	8081d783          	lhu	a5,-2040(gp) # 20000220 <arr>
     7be:	40013437          	lui	s0,0x40013
     7c2:	084c                	addi	a1,sp,20
     7c4:	84fc                	sh	a5,24(sp)
     7c6:	81c1d783          	lhu	a5,-2020(gp) # 20000234 <psc>
     7ca:	c0040513          	addi	a0,s0,-1024 # 40012c00 <_eusrstack+0x2000dc00>
     7ce:	c0040493          	addi	s1,s0,-1024
     7d2:	82fc                	sh	a5,20(sp)
     7d4:	03200793          	li	a5,50
     7d8:	00f10e23          	sb	a5,28(sp)
     7dc:	5cf000ef          	jal	ra,15aa <TIM_TimeBaseInit>
     7e0:	57f9                	li	a5,-2
     7e2:	c0f41823          	sh	a5,-1008(s0)
     7e6:	02300793          	li	a5,35
     7ea:	867c                	sh	a5,12(sp)
     7ec:	4785                	li	a5,1
     7ee:	875c                	sb	a5,14(sp)
     7f0:	0068                	addi	a0,sp,12
     7f2:	4785                	li	a5,1
     7f4:	c83e                	sw	a5,16(sp)
     7f6:	4a1000ef          	jal	ra,1496 <NVIC_Init>
     7fa:	c0c45783          	lhu	a5,-1012(s0)
     7fe:	0017e793          	ori	a5,a5,1
     802:	c0f41623          	sh	a5,-1012(s0)
     806:	c0045783          	lhu	a5,-1024(s0)
     80a:	0017e793          	ori	a5,a5,1
     80e:	c0f41023          	sh	a5,-1024(s0)
     812:	6105                	addi	sp,sp,32
     814:	941ff06f          	j	154 <__riscv_restore_0>

00000818 <GPIO_ConfigOut>:
     818:	919ff2ef          	jal	t0,130 <__riscv_save_0>
     81c:	400117b7          	lui	a5,0x40011
     820:	c0078693          	addi	a3,a5,-1024 # 40010c00 <_eusrstack+0x2000bc00>
     824:	1141                	addi	sp,sp,-16
     826:	4721                	li	a4,8
     828:	00d50663          	beq	a0,a3,834 <GPIO_ConfigOut+0x1c>
     82c:	4711                	li	a4,4
     82e:	00f51363          	bne	a0,a5,834 <GPIO_ConfigOut+0x1c>
     832:	4741                	li	a4,16
     834:	400216b7          	lui	a3,0x40021
     838:	4e9c                	lw	a5,24(a3)
     83a:	8fd9                	or	a5,a5,a4
     83c:	ce9c                	sw	a5,24(a3)
     83e:	47c1                	li	a5,16
     840:	c22e                	sw	a1,4(sp)
     842:	c63e                	sw	a5,12(sp)
     844:	004c                	addi	a1,sp,4
     846:	4785                	li	a5,1
     848:	c43e                	sw	a5,8(sp)
     84a:	279000ef          	jal	ra,12c2 <GPIO_Init>
     84e:	0141                	addi	sp,sp,16
     850:	905ff06f          	j	154 <__riscv_restore_0>

00000854 <Leds>:
     854:	8ddff2ef          	jal	t0,130 <__riscv_save_0>
     858:	8041a503          	lw	a0,-2044(gp) # 2000021c <LedPort>
     85c:	200007b7          	lui	a5,0x20000
     860:	21a7d583          	lhu	a1,538(a5) # 2000021a <LedPin>
     864:	85a1c783          	lbu	a5,-1958(gp) # 20000272 <led>
     868:	85a18413          	addi	s0,gp,-1958 # 20000272 <led>
     86c:	cb89                	beqz	a5,87e <Leds+0x2a>
     86e:	3f1000ef          	jal	ra,145e <GPIO_ResetBits>
     872:	201c                	lbu	a5,0(s0)
     874:	fff7c793          	not	a5,a5
     878:	a01c                	sb	a5,0(s0)
     87a:	8dbff06f          	j	154 <__riscv_restore_0>
     87e:	3d3000ef          	jal	ra,1450 <GPIO_SetBits>
     882:	bfc5                	j	872 <Leds+0x1e>

00000884 <TIM1_UP_IRQHandler>:
     884:	40013537          	lui	a0,0x40013
     888:	4585                	li	a1,1
     88a:	c0050513          	addi	a0,a0,-1024 # 40012c00 <_eusrstack+0x2000dc00>
     88e:	589000ef          	jal	ra,1616 <TIM_GetITStatus>
     892:	4785                	li	a5,1
     894:	02f51563          	bne	a0,a5,8be <TIM1_UP_IRQHandler+0x3a>
     898:	3f75                	jal	854 <Leds>
     89a:	81e18713          	addi	a4,gp,-2018 # 20000236 <set_time>
     89e:	2314                	lbu	a3,0(a4)
     8a0:	86018793          	addi	a5,gp,-1952 # 20000278 <seconda>
     8a4:	c699                	beqz	a3,8b2 <TIM1_UP_IRQHandler+0x2e>
     8a6:	8101a683          	lw	a3,-2032(gp) # 20000228 <epoch>
     8aa:	00070023          	sb	zero,0(a4)
     8ae:	0685                	addi	a3,a3,1
     8b0:	c394                	sw	a3,0(a5)
     8b2:	4398                	lw	a4,0(a5)
     8b4:	0705                	addi	a4,a4,1
     8b6:	c398                	sw	a4,0(a5)
     8b8:	4711                	li	a4,4
     8ba:	84e186a3          	sb	a4,-1971(gp) # 20000265 <evt>
     8be:	40013537          	lui	a0,0x40013
     8c2:	4585                	li	a1,1
     8c4:	c0050513          	addi	a0,a0,-1024 # 40012c00 <_eusrstack+0x2000dc00>
     8c8:	567000ef          	jal	ra,162e <TIM_ClearITPendingBit>
     8cc:	30200073          	mret

000008d0 <calcTime>:
     8d0:	861ff2ef          	jal	t0,130 <__riscv_save_0>
     8d4:	6655                	lui	a2,0x15
     8d6:	18060613          	addi	a2,a2,384 # 15180 <_data_lma+0x11084>
     8da:	02c57533          	remu	a0,a0,a2
     8de:	6605                	lui	a2,0x1
     8e0:	e1060613          	addi	a2,a2,-496 # e10 <main+0x3ee>
     8e4:	03c00793          	li	a5,60
     8e8:	882e                	mv	a6,a1
     8ea:	000045b7          	lui	a1,0x4
     8ee:	81c58593          	addi	a1,a1,-2020 # 381c <allStep_bin+0x1c>
     8f2:	02c576b3          	remu	a3,a0,a2
     8f6:	02c55633          	divu	a2,a0,a2
     8fa:	8542                	mv	a0,a6
     8fc:	02f6f733          	remu	a4,a3,a5
     900:	02f6d6b3          	divu	a3,a3,a5
     904:	7d4010ef          	jal	ra,20d8 <siprintf>
     908:	4531                	li	a0,12
     90a:	84bff06f          	j	154 <__riscv_restore_0>

0000090e <spi_init>:
     90e:	809ff2ef          	jal	t0,116 <__riscv_save_4>
     912:	400217b7          	lui	a5,0x40021
     916:	4f98                	lw	a4,24(a5)
     918:	6985                	lui	s3,0x1
     91a:	00498693          	addi	a3,s3,4 # 1004 <OLED_Init+0x1e>
     91e:	8f55                	or	a4,a4,a3
     920:	cf98                	sw	a4,24(a5)
     922:	4f98                	lw	a4,24(a5)
     924:	1101                	addi	sp,sp,-32
     926:	40011437          	lui	s0,0x40011
     92a:	00876713          	ori	a4,a4,8
     92e:	cf98                	sw	a4,24(a5)
     930:	4485                	li	s1,1
     932:	4941                	li	s2,16
     934:	858a                	mv	a1,sp
     936:	80040513          	addi	a0,s0,-2048 # 40010800 <_eusrstack+0x2000b800>
     93a:	c04a                	sw	s2,0(sp)
     93c:	c44a                	sw	s2,8(sp)
     93e:	c226                	sw	s1,4(sp)
     940:	183000ef          	jal	ra,12c2 <GPIO_Init>
     944:	84898793          	addi	a5,s3,-1976
     948:	858a                	mv	a1,sp
     94a:	c0040513          	addi	a0,s0,-1024
     94e:	c03e                	sw	a5,0(sp)
     950:	c44a                	sw	s2,8(sp)
     952:	c226                	sw	s1,4(sp)
     954:	16f000ef          	jal	ra,12c2 <GPIO_Init>
     958:	04000793          	li	a5,64
     95c:	858a                	mv	a1,sp
     95e:	80040513          	addi	a0,s0,-2048
     962:	c03e                	sw	a5,0(sp)
     964:	c44a                	sw	s2,8(sp)
     966:	c226                	sw	s1,4(sp)
     968:	15b000ef          	jal	ra,12c2 <GPIO_Init>
     96c:	08000793          	li	a5,128
     970:	4961                	li	s2,24
     972:	858a                	mv	a1,sp
     974:	80040513          	addi	a0,s0,-2048
     978:	c03e                	sw	a5,0(sp)
     97a:	c44a                	sw	s2,8(sp)
     97c:	c226                	sw	s1,4(sp)
     97e:	145000ef          	jal	ra,12c2 <GPIO_Init>
     982:	02000793          	li	a5,32
     986:	858a                	mv	a1,sp
     988:	80040513          	addi	a0,s0,-2048
     98c:	c03e                	sw	a5,0(sp)
     98e:	c44a                	sw	s2,8(sp)
     990:	c226                	sw	s1,4(sp)
     992:	131000ef          	jal	ra,12c2 <GPIO_Init>
     996:	80040513          	addi	a0,s0,-2048
     99a:	45c1                	li	a1,16
     99c:	2b5000ef          	jal	ra,1450 <GPIO_SetBits>
     9a0:	80098593          	addi	a1,s3,-2048
     9a4:	c0040513          	addi	a0,s0,-1024
     9a8:	2a9000ef          	jal	ra,1450 <GPIO_SetBits>
     9ac:	c0040513          	addi	a0,s0,-1024
     9b0:	45a1                	li	a1,8
     9b2:	2ad000ef          	jal	ra,145e <GPIO_ResetBits>
     9b6:	80040513          	addi	a0,s0,-2048
     9ba:	04000593          	li	a1,64
     9be:	293000ef          	jal	ra,1450 <GPIO_SetBits>
     9c2:	0104c7b7          	lui	a5,0x104c
     9c6:	c802                	sw	zero,16(sp)
     9c8:	c63e                	sw	a5,12(sp)
     9ca:	4789                	li	a5,2
     9cc:	81fc                	sh	a5,18(sp)
     9ce:	020007b7          	lui	a5,0x2000
     9d2:	0785                	addi	a5,a5,1
     9d4:	cc02                	sw	zero,24(sp)
     9d6:	ca3e                	sw	a5,20(sp)
     9d8:	006c                	addi	a1,sp,12
     9da:	47a1                	li	a5,8
     9dc:	40013537          	lui	a0,0x40013
     9e0:	84fc                	sh	a5,24(sp)
     9e2:	00011e23          	sh	zero,28(sp)
     9e6:	37f000ef          	jal	ra,1564 <SPI_Init>
     9ea:	40013737          	lui	a4,0x40013
     9ee:	231e                	lhu	a5,0(a4)
     9f0:	0407e793          	ori	a5,a5,64
     9f4:	a31e                	sh	a5,0(a4)
     9f6:	6105                	addi	sp,sp,32
     9f8:	f52ff06f          	j	14a <__riscv_restore_4>

000009fc <prnInfo>:
     9fc:	f34ff2ef          	jal	t0,130 <__riscv_save_0>
     a00:	027000ef          	jal	ra,1226 <DBGMCU_GetCHIPID>
     a04:	8601a683          	lw	a3,-1952(gp) # 20000278 <seconda>
     a08:	80c1a703          	lw	a4,-2036(gp) # 20000224 <eol>
     a0c:	82c1a603          	lw	a2,-2004(gp) # 20000244 <SystemCoreClock>
     a10:	85aa                	mv	a1,a0
     a12:	00004537          	lui	a0,0x4
     a16:	90050513          	addi	a0,a0,-1792 # 3900 <allStep_bin+0x100>
     a1a:	654010ef          	jal	ra,206e <iprintf>
     a1e:	f36ff06f          	j	154 <__riscv_restore_0>

00000a22 <main>:
     a22:	edeff2ef          	jal	t0,100 <__riscv_save_12>
     a26:	7179                	addi	sp,sp,-48
     a28:	4505                	li	a0,1
     a2a:	267000ef          	jal	ra,1490 <NVIC_PriorityGroupConfig>
     a2e:	736000ef          	jal	ra,1164 <SystemCoreClockUpdate>
     a32:	200007b7          	lui	a5,0x20000
     a36:	21a7d583          	lhu	a1,538(a5) # 2000021a <LedPin>
     a3a:	8041a503          	lw	a0,-2044(gp) # 2000021c <LedPort>
     a3e:	3be9                	jal	818 <GPIO_ConfigOut>
     a40:	4ef000ef          	jal	ra,172e <Delay_Init>
     a44:	33b1                	jal	790 <TIM1_Init>
     a46:	6571                	lui	a0,0x1c
     a48:	20050513          	addi	a0,a0,512 # 1c200 <_data_lma+0x18104>
     a4c:	3cd9                	jal	522 <InitUSART4>
     a4e:	3e800513          	li	a0,1000
     a52:	503000ef          	jal	ra,1754 <Delay_Ms>
     a56:	375d                	jal	9fc <prnInfo>
     a58:	3d5d                	jal	90e <spi_init>
     a5a:	4529                	li	a0,10
     a5c:	4f9000ef          	jal	ra,1754 <Delay_Ms>
     a60:	81418a93          	addi	s5,gp,-2028 # 2000022c <freq>
     a64:	82818913          	addi	s2,gp,-2008 # 20000240 <waveform_select>
     a68:	85c1d603          	lhu	a2,-1956(gp) # 20000274 <phase>
     a6c:	000aa583          	lw	a1,0(s5)
     a70:	00094503          	lbu	a0,0(s2)
     a74:	95dff0ef          	jal	ra,3d0 <AD9833_Init>
     a78:	000aa583          	lw	a1,0(s5)
     a7c:	00094503          	lbu	a0,0(s2)
     a80:	c22e                	sw	a1,4(sp)
     a82:	823ff0ef          	jal	ra,2a4 <formName>
     a86:	80c1a683          	lw	a3,-2036(gp) # 20000224 <eol>
     a8a:	4592                	lw	a1,4(sp)
     a8c:	862a                	mv	a2,a0
     a8e:	00004537          	lui	a0,0x4
     a92:	83050513          	addi	a0,a0,-2000 # 3830 <allStep_bin+0x30>
     a96:	5d8010ef          	jal	ra,206e <iprintf>
     a9a:	23b1                	jal	fe6 <OLED_Init>
     a9c:	03200513          	li	a0,50
     aa0:	4b5000ef          	jal	ra,1754 <Delay_Ms>
     aa4:	8241a603          	lw	a2,-2012(gp) # 2000023c <uname>
     aa8:	00003337          	lui	t1,0x3
     aac:	73830593          	addi	a1,t1,1848 # 3738 <_read+0x86>
     ab0:	8bc18513          	addi	a0,gp,-1860 # 200002d4 <tmp>
     ab4:	624010ef          	jal	ra,20d8 <siprintf>
     ab8:	2371                	jal	1044 <OLED_calcx>
     aba:	85918493          	addi	s1,gp,-1959 # 20000271 <inv>
     abe:	2094                	lbu	a3,0(s1)
     ac0:	85aa                	mv	a1,a0
     ac2:	4611                	li	a2,4
     ac4:	8bc18513          	addi	a0,gp,-1860 # 200002d4 <tmp>
     ac8:	2b69                	jal	1062 <OLED_text_xy>
     aca:	06400513          	li	a0,100
     ace:	487000ef          	jal	ra,1754 <Delay_Ms>
     ad2:	000aa503          	lw	a0,0(s5)
     ad6:	20000db7          	lui	s11,0x20000
     ada:	2a4010ef          	jal	ra,1d7e <__floatunsisf>
     ade:	24a010ef          	jal	ra,1d28 <__fixunssfsi>
     ae2:	3e800613          	li	a2,1000
     ae6:	02c576b3          	remu	a3,a0,a2
     aea:	85018793          	addi	a5,gp,-1968 # 20000268 <flo>
     aee:	00004837          	lui	a6,0x4
     af2:	85c80593          	addi	a1,a6,-1956 # 385c <allStep_bin+0x5c>
     af6:	c388                	sw	a0,0(a5)
     af8:	4b81                	li	s7,0
     afa:	4d01                	li	s10,0
     afc:	81418b13          	addi	s6,gp,-2028 # 2000022c <freq>
     b00:	82818993          	addi	s3,gp,-2008 # 20000240 <waveform_select>
     b04:	80c18c13          	addi	s8,gp,-2036 # 20000224 <eol>
     b08:	85918a13          	addi	s4,gp,-1959 # 20000271 <inv>
     b0c:	02c55633          	divu	a2,a0,a2
     b10:	8bc18513          	addi	a0,gp,-1860 # 200002d4 <tmp>
     b14:	c3d4                	sw	a3,4(a5)
     b16:	5c2010ef          	jal	ra,20d8 <siprintf>
     b1a:	232d                	jal	1044 <OLED_calcx>
     b1c:	2094                	lbu	a3,0(s1)
     b1e:	85aa                	mv	a1,a0
     b20:	4609                	li	a2,2
     b22:	8bc18513          	addi	a0,gp,-1860 # 200002d4 <tmp>
     b26:	2b35                	jal	1062 <OLED_text_xy>
     b28:	8641a703          	lw	a4,-1948(gp) # 2000027c <step_idx>
     b2c:	000d8793          	mv	a5,s11
     b30:	00094503          	lbu	a0,0(s2)
     b34:	070a                	slli	a4,a4,0x2
     b36:	97ba                	add	a5,a5,a4
     b38:	4390                	lw	a2,0(a5)
     b3a:	00004937          	lui	s2,0x4
     b3e:	86418a93          	addi	s5,gp,-1948 # 2000027c <step_idx>
     b42:	c232                	sw	a2,4(sp)
     b44:	f60ff0ef          	jal	ra,2a4 <formName>
     b48:	4612                	lw	a2,4(sp)
     b4a:	86aa                	mv	a3,a0
     b4c:	86890593          	addi	a1,s2,-1944 # 3868 <allStep_bin+0x68>
     b50:	8bc18513          	addi	a0,gp,-1860 # 200002d4 <tmp>
     b54:	584010ef          	jal	ra,20d8 <siprintf>
     b58:	21f5                	jal	1044 <OLED_calcx>
     b5a:	2094                	lbu	a3,0(s1)
     b5c:	85aa                	mv	a1,a0
     b5e:	460d                	li	a2,3
     b60:	8bc18513          	addi	a0,gp,-1860 # 200002d4 <tmp>
     b64:	29fd                	jal	1062 <OLED_text_xy>
     b66:	8afff0ef          	jal	ra,414 <TIM2_Encoder_Init>
     b6a:	951ff0ef          	jal	ra,4ba <EXTI_PA2_Init>
     b6e:	400007b7          	lui	a5,0x40000
     b72:	33da                	lhu	a4,36(a5)
     b74:	0247dc83          	lhu	s9,36(a5) # 40000024 <_eusrstack+0x1fffb024>
     b78:	82418793          	addi	a5,gp,-2012 # 2000023c <uname>
     b7c:	c83e                	sw	a5,16(sp)
     b7e:	85018793          	addi	a5,gp,-1968 # 20000268 <flo>
     b82:	c43e                	sw	a5,8(sp)
     b84:	000d8793          	mv	a5,s11
     b88:	cc3e                	sw	a5,24(sp)
     b8a:	678d                	lui	a5,0x3
     b8c:	7a478793          	addi	a5,a5,1956 # 37a4 <__func__.5523+0x34>
     b90:	d03e                	sw	a5,32(sp)
     b92:	6791                	lui	a5,0x4
     b94:	80078793          	addi	a5,a5,-2048 # 3800 <allStep_bin>
     b98:	c63e                	sw	a5,12(sp)
     b9a:	200007b7          	lui	a5,0x20000
     b9e:	0cc2                	slli	s9,s9,0x10
     ba0:	00003337          	lui	t1,0x3
     ba4:	00004837          	lui	a6,0x4
     ba8:	01c78793          	addi	a5,a5,28 # 2000001c <menu>
     bac:	010cdc93          	srli	s9,s9,0x10
     bb0:	4481                	li	s1,0
     bb2:	c21a                	sw	t1,4(sp)
     bb4:	ca42                	sw	a6,20(sp)
     bb6:	ce4a                	sw	s2,28(sp)
     bb8:	d23e                	sw	a5,36(sp)
     bba:	84d18793          	addi	a5,gp,-1971 # 20000265 <evt>
     bbe:	239c                	lbu	a5,0(a5)
     bc0:	4721                	li	a4,8
     bc2:	84d18913          	addi	s2,gp,-1971 # 20000265 <evt>
     bc6:	17fd                	addi	a5,a5,-1
     bc8:	0ff7f793          	andi	a5,a5,255
     bcc:	02f76163          	bltu	a4,a5,bee <main+0x1cc>
     bd0:	5702                	lw	a4,32(sp)
     bd2:	078a                	slli	a5,a5,0x2
     bd4:	97ba                	add	a5,a5,a4
     bd6:	439c                	lw	a5,0(a5)
     bd8:	8782                	jr	a5
     bda:	000c2583          	lw	a1,0(s8)
     bde:	00004537          	lui	a0,0x4
     be2:	87050513          	addi	a0,a0,-1936 # 3870 <allStep_bin+0x70>
     be6:	488010ef          	jal	ra,206e <iprintf>
     bea:	00090023          	sb	zero,0(s2)
     bee:	400007b7          	lui	a5,0x40000
     bf2:	33de                	lhu	a5,36(a5)
     bf4:	07c2                	slli	a5,a5,0x10
     bf6:	83c1                	srli	a5,a5,0x10
     bf8:	02fc8063          	beq	s9,a5,c18 <main+0x1f6>
     bfc:	0017f713          	andi	a4,a5,1
     c00:	2c070663          	beqz	a4,ecc <main+0x4aa>
     c04:	04c2                	slli	s1,s1,0x10
     c06:	80c1                	srli	s1,s1,0x10
     c08:	2cfcf063          	bgeu	s9,a5,ec8 <main+0x4a6>
     c0c:	0485                	addi	s1,s1,1
     c0e:	04c2                	slli	s1,s1,0x10
     c10:	470d                	li	a4,3
     c12:	84c1                	srai	s1,s1,0x10
     c14:	00e90023          	sb	a4,0(s2)
     c18:	020b8d63          	beqz	s7,c52 <main+0x230>
     c1c:	8601a703          	lw	a4,-1952(gp) # 20000278 <seconda>
     c20:	03776963          	bltu	a4,s7,c52 <main+0x230>
     c24:	d43e                	sw	a5,40(sp)
     c26:	47c2                	lw	a5,16(sp)
     c28:	577d                	li	a4,-1
     c2a:	8bc18513          	addi	a0,gp,-1860 # 200002d4 <tmp>
     c2e:	4390                	lw	a2,0(a5)
     c30:	4792                	lw	a5,4(sp)
     c32:	80e1ac23          	sw	a4,-2024(gp) # 20000230 <menu_idx>
     c36:	4b81                	li	s7,0
     c38:	73878593          	addi	a1,a5,1848 # 40000738 <_eusrstack+0x1fffb738>
     c3c:	49c010ef          	jal	ra,20d8 <siprintf>
     c40:	2111                	jal	1044 <OLED_calcx>
     c42:	000a4683          	lbu	a3,0(s4)
     c46:	85aa                	mv	a1,a0
     c48:	4611                	li	a2,4
     c4a:	8bc18513          	addi	a0,gp,-1860 # 200002d4 <tmp>
     c4e:	2911                	jal	1062 <OLED_text_xy>
     c50:	57a2                	lw	a5,40(sp)
     c52:	4505                	li	a0,1
     c54:	d43e                	sw	a5,40(sp)
     c56:	2ff000ef          	jal	ra,1754 <Delay_Ms>
     c5a:	57a2                	lw	a5,40(sp)
     c5c:	8cbe                	mv	s9,a5
     c5e:	bfb1                	j	bba <main+0x198>
     c60:	2695                	jal	fc4 <OLED_Clear>
     c62:	000c2603          	lw	a2,0(s8)
     c66:	00004537          	lui	a0,0x4
     c6a:	88450513          	addi	a0,a0,-1916 # 3884 <allStep_bin+0x84>
     c6e:	85b2                	mv	a1,a2
     c70:	3fe010ef          	jal	ra,206e <iprintf>
     c74:	06400513          	li	a0,100
     c78:	2dd000ef          	jal	ra,1754 <Delay_Ms>
     c7c:	beef07b7          	lui	a5,0xbeef0
     c80:	e000e737          	lui	a4,0xe000e
     c84:	08078793          	addi	a5,a5,128 # beef0080 <_eusrstack+0x9eeeb080>
     c88:	c73c                	sw	a5,72(a4)
     c8a:	b785                	j	bea <main+0x1c8>
     c8c:	8601a503          	lw	a0,-1952(gp) # 20000278 <seconda>
     c90:	8bc18593          	addi	a1,gp,-1860 # 200002d4 <tmp>
     c94:	3935                	jal	8d0 <calcTime>
     c96:	267d                	jal	1044 <OLED_calcx>
     c98:	000a4683          	lbu	a3,0(s4)
     c9c:	4605                	li	a2,1
     c9e:	85aa                	mv	a1,a0
     ca0:	8bc18513          	addi	a0,gp,-1860 # 200002d4 <tmp>
     ca4:	2e7d                	jal	1062 <OLED_text_xy>
     ca6:	b791                	j	bea <main+0x1c8>
     ca8:	8601a583          	lw	a1,-1952(gp) # 20000278 <seconda>
     cac:	000b2603          	lw	a2,0(s6)
     cb0:	0009c503          	lbu	a0,0(s3)
     cb4:	d62e                	sw	a1,44(sp)
     cb6:	d432                	sw	a2,40(sp)
     cb8:	decff0ef          	jal	ra,2a4 <formName>
     cbc:	000c2703          	lw	a4,0(s8)
     cc0:	5622                	lw	a2,40(sp)
     cc2:	55b2                	lw	a1,44(sp)
     cc4:	86aa                	mv	a3,a0
     cc6:	00004537          	lui	a0,0x4
     cca:	89450513          	addi	a0,a0,-1900 # 3894 <allStep_bin+0x94>
     cce:	3a0010ef          	jal	ra,206e <iprintf>
     cd2:	bf21                	j	bea <main+0x1c8>
     cd4:	000b2503          	lw	a0,0(s6)
     cd8:	e6cff0ef          	jal	ra,344 <AD9833_SetFrequency>
     cdc:	000c2603          	lw	a2,0(s8)
     ce0:	000b2583          	lw	a1,0(s6)
     ce4:	00004537          	lui	a0,0x4
     ce8:	8bc50513          	addi	a0,a0,-1860 # 38bc <allStep_bin+0xbc>
     cec:	382010ef          	jal	ra,206e <iprintf>
     cf0:	000a4583          	lbu	a1,0(s4)
     cf4:	4509                	li	a0,2
     cf6:	2495                	jal	f5a <OLED_clear_line>
     cf8:	000b2603          	lw	a2,0(s6)
     cfc:	3e700793          	li	a5,999
     d00:	02c7fc63          	bgeu	a5,a2,d38 <main+0x316>
     d04:	8532                	mv	a0,a2
     d06:	078010ef          	jal	ra,1d7e <__floatunsisf>
     d0a:	01e010ef          	jal	ra,1d28 <__fixunssfsi>
     d0e:	3e800613          	li	a2,1000
     d12:	02c576b3          	remu	a3,a0,a2
     d16:	47a2                	lw	a5,8(sp)
     d18:	c388                	sw	a0,0(a5)
     d1a:	02c55633          	divu	a2,a0,a2
     d1e:	c3d4                	sw	a3,4(a5)
     d20:	47d2                	lw	a5,20(sp)
     d22:	8bc18513          	addi	a0,gp,-1860 # 200002d4 <tmp>
     d26:	85c78593          	addi	a1,a5,-1956
     d2a:	3ae010ef          	jal	ra,20d8 <siprintf>
     d2e:	2e19                	jal	1044 <OLED_calcx>
     d30:	000a4683          	lbu	a3,0(s4)
     d34:	4609                	li	a2,2
     d36:	b7a5                	j	c9e <main+0x27c>
     d38:	000045b7          	lui	a1,0x4
     d3c:	8d858593          	addi	a1,a1,-1832 # 38d8 <allStep_bin+0xd8>
     d40:	8bc18513          	addi	a0,gp,-1860 # 200002d4 <tmp>
     d44:	394010ef          	jal	ra,20d8 <siprintf>
     d48:	b7dd                	j	d2e <main+0x30c>
     d4a:	0009c503          	lbu	a0,0(s3)
     d4e:	d76ff0ef          	jal	ra,2c4 <AD9833_SetWaveform>
     d52:	0009c503          	lbu	a0,0(s3)
     d56:	d4eff0ef          	jal	ra,2a4 <formName>
     d5a:	000aa783          	lw	a5,0(s5)
     d5e:	4732                	lw	a4,12(sp)
     d60:	000c2683          	lw	a3,0(s8)
     d64:	078a                	slli	a5,a5,0x2
     d66:	97ba                	add	a5,a5,a4
     d68:	4390                	lw	a2,0(a5)
     d6a:	85aa                	mv	a1,a0
     d6c:	00004537          	lui	a0,0x4
     d70:	8e050513          	addi	a0,a0,-1824 # 38e0 <allStep_bin+0xe0>
     d74:	2fa010ef          	jal	ra,206e <iprintf>
     d78:	000a4583          	lbu	a1,0(s4)
     d7c:	450d                	li	a0,3
     d7e:	2af1                	jal	f5a <OLED_clear_line>
     d80:	000aa783          	lw	a5,0(s5)
     d84:	4762                	lw	a4,24(sp)
     d86:	0009c503          	lbu	a0,0(s3)
     d8a:	078a                	slli	a5,a5,0x2
     d8c:	97ba                	add	a5,a5,a4
     d8e:	4390                	lw	a2,0(a5)
     d90:	d432                	sw	a2,40(sp)
     d92:	d12ff0ef          	jal	ra,2a4 <formName>
     d96:	47f2                	lw	a5,28(sp)
     d98:	5622                	lw	a2,40(sp)
     d9a:	86aa                	mv	a3,a0
     d9c:	86878593          	addi	a1,a5,-1944
     da0:	8bc18513          	addi	a0,gp,-1860 # 200002d4 <tmp>
     da4:	334010ef          	jal	ra,20d8 <siprintf>
     da8:	2c71                	jal	1044 <OLED_calcx>
     daa:	000a4683          	lbu	a3,0(s4)
     dae:	460d                	li	a2,3
     db0:	b5fd                	j	c9e <main+0x27c>
     db2:	8181a783          	lw	a5,-2024(gp) # 20000230 <menu_idx>
     db6:	4709                	li	a4,2
     db8:	81818b93          	addi	s7,gp,-2024 # 20000230 <menu_idx>
     dbc:	0785                	addi	a5,a5,1
     dbe:	04f74563          	blt	a4,a5,e08 <main+0x3e6>
     dc2:	00fba023          	sw	a5,0(s7)
     dc6:	000a4583          	lbu	a1,0(s4)
     dca:	4511                	li	a0,4
     dcc:	2279                	jal	f5a <OLED_clear_line>
     dce:	000ba783          	lw	a5,0(s7)
     dd2:	5712                	lw	a4,36(sp)
     dd4:	8bc18513          	addi	a0,gp,-1860 # 200002d4 <tmp>
     dd8:	078a                	slli	a5,a5,0x2
     dda:	97ba                	add	a5,a5,a4
     ddc:	4390                	lw	a2,0(a5)
     dde:	4792                	lw	a5,4(sp)
     de0:	73878593          	addi	a1,a5,1848
     de4:	2f4010ef          	jal	ra,20d8 <siprintf>
     de8:	2cb1                	jal	1044 <OLED_calcx>
     dea:	000a4683          	lbu	a3,0(s4)
     dee:	85aa                	mv	a1,a0
     df0:	4611                	li	a2,4
     df2:	8bc18513          	addi	a0,gp,-1860 # 200002d4 <tmp>
     df6:	24b5                	jal	1062 <OLED_text_xy>
     df8:	8601ab83          	lw	s7,-1952(gp) # 20000278 <seconda>
     dfc:	03200513          	li	a0,50
     e00:	0ba1                	addi	s7,s7,8
     e02:	153000ef          	jal	ra,1754 <Delay_Ms>
     e06:	b3d5                	j	bea <main+0x1c8>
     e08:	000ba023          	sw	zero,0(s7)
     e0c:	bf6d                	j	dc6 <main+0x3a4>
     e0e:	8181a783          	lw	a5,-2024(gp) # 20000230 <menu_idx>
     e12:	4705                	li	a4,1
     e14:	04e78e63          	beq	a5,a4,e70 <main+0x44e>
     e18:	4709                	li	a4,2
     e1a:	08e78163          	beq	a5,a4,e9c <main+0x47a>
     e1e:	e3d5                	bnez	a5,ec2 <main+0x4a0>
     e20:	000aa783          	lw	a5,0(s5)
     e24:	46b2                	lw	a3,12(sp)
     e26:	000b2703          	lw	a4,0(s6)
     e2a:	078a                	slli	a5,a5,0x2
     e2c:	97b6                	add	a5,a5,a3
     e2e:	439c                	lw	a5,0(a5)
     e30:	029d5963          	bge	s10,s1,e62 <main+0x440>
     e34:	97ba                	add	a5,a5,a4
     e36:	00bec737          	lui	a4,0xbec
     e3a:	00fb2023          	sw	a5,0(s6)
     e3e:	c2070713          	addi	a4,a4,-992 # bebc20 <_data_lma+0xbe7b24>
     e42:	00f76563          	bltu	a4,a5,e4c <main+0x42a>
     e46:	4799                	li	a5,6
     e48:	00f90023          	sb	a5,0(s2)
     e4c:	00094783          	lbu	a5,0(s2)
     e50:	8d26                	mv	s10,s1
     e52:	0ff7f793          	andi	a5,a5,255
     e56:	d8078ce3          	beqz	a5,bee <main+0x1cc>
     e5a:	8601ab83          	lw	s7,-1952(gp) # 20000278 <seconda>
     e5e:	0ba1                	addi	s7,s7,8
     e60:	b379                	j	bee <main+0x1cc>
     e62:	fef765e3          	bltu	a4,a5,e4c <main+0x42a>
     e66:	40f707b3          	sub	a5,a4,a5
     e6a:	00fb2023          	sw	a5,0(s6)
     e6e:	bfe1                	j	e46 <main+0x424>
     e70:	0009c783          	lbu	a5,0(s3)
     e74:	009d5f63          	bge	s10,s1,e92 <main+0x470>
     e78:	0785                	addi	a5,a5,1
     e7a:	0ff7f793          	andi	a5,a5,255
     e7e:	4709                	li	a4,2
     e80:	00f76563          	bltu	a4,a5,e8a <main+0x468>
     e84:	00f98023          	sb	a5,0(s3)
     e88:	a019                	j	e8e <main+0x46c>
     e8a:	00098023          	sb	zero,0(s3)
     e8e:	479d                	li	a5,7
     e90:	bf65                	j	e48 <main+0x426>
     e92:	e399                	bnez	a5,e98 <main+0x476>
     e94:	4789                	li	a5,2
     e96:	b7fd                	j	e84 <main+0x462>
     e98:	17fd                	addi	a5,a5,-1
     e9a:	b7ed                	j	e84 <main+0x462>
     e9c:	000aa783          	lw	a5,0(s5)
     ea0:	009d5c63          	bge	s10,s1,eb8 <main+0x496>
     ea4:	0785                	addi	a5,a5,1
     ea6:	4719                	li	a4,6
     ea8:	00f74563          	blt	a4,a5,eb2 <main+0x490>
     eac:	00faa023          	sw	a5,0(s5)
     eb0:	bff9                	j	e8e <main+0x46c>
     eb2:	000aa023          	sw	zero,0(s5)
     eb6:	bfe1                	j	e8e <main+0x46c>
     eb8:	e399                	bnez	a5,ebe <main+0x49c>
     eba:	4799                	li	a5,6
     ebc:	bfc5                	j	eac <main+0x48a>
     ebe:	17fd                	addi	a5,a5,-1
     ec0:	b7f5                	j	eac <main+0x48a>
     ec2:	00090023          	sb	zero,0(s2)
     ec6:	b759                	j	e4c <main+0x42a>
     ec8:	14fd                	addi	s1,s1,-1
     eca:	b391                	j	c0e <main+0x1ec>
     ecc:	87e6                	mv	a5,s9
     ece:	b3a9                	j	c18 <main+0x1f6>

00000ed0 <OLED_RESET>:
     ed0:	a60ff2ef          	jal	t0,130 <__riscv_save_0>
     ed4:	40011437          	lui	s0,0x40011
     ed8:	6585                	lui	a1,0x1
     eda:	c0040513          	addi	a0,s0,-1024 # 40010c00 <_eusrstack+0x2000bc00>
     ede:	80058593          	addi	a1,a1,-2048 # 800 <__stack_size>
     ee2:	23bd                	jal	1450 <GPIO_SetBits>
     ee4:	04000593          	li	a1,64
     ee8:	80040513          	addi	a0,s0,-2048
     eec:	2b8d                	jal	145e <GPIO_ResetBits>
     eee:	4505                	li	a0,1
     ef0:	065000ef          	jal	ra,1754 <Delay_Ms>
     ef4:	04000593          	li	a1,64
     ef8:	80040513          	addi	a0,s0,-2048
     efc:	2b91                	jal	1450 <GPIO_SetBits>
     efe:	4505                	li	a0,1
     f00:	055000ef          	jal	ra,1754 <Delay_Ms>
     f04:	a50ff06f          	j	154 <__riscv_restore_0>

00000f08 <I2C_WriteDatas>:
     f08:	a0eff2ef          	jal	t0,116 <__riscv_save_4>
     f0c:	40011937          	lui	s2,0x40011
     f10:	842e                	mv	s0,a1
     f12:	6585                	lui	a1,0x1
     f14:	80058593          	addi	a1,a1,-2048 # 800 <__stack_size>
     f18:	89aa                	mv	s3,a0
     f1a:	c0090513          	addi	a0,s2,-1024 # 40010c00 <_eusrstack+0x2000bc00>
     f1e:	84b2                	mv	s1,a2
     f20:	2b3d                	jal	145e <GPIO_ResetBits>
     f22:	45a1                	li	a1,8
     f24:	c0090513          	addi	a0,s2,-1024
     f28:	02098063          	beqz	s3,f48 <I2C_WriteDatas+0x40>
     f2c:	2b0d                	jal	145e <GPIO_ResetBits>
     f2e:	94a2                	add	s1,s1,s0
     f30:	00941e63          	bne	s0,s1,f4c <I2C_WriteDatas+0x44>
     f34:	6585                	lui	a1,0x1
     f36:	40011537          	lui	a0,0x40011
     f3a:	80058593          	addi	a1,a1,-2048 # 800 <__stack_size>
     f3e:	c0050513          	addi	a0,a0,-1024 # 40010c00 <_eusrstack+0x2000bc00>
     f42:	2339                	jal	1450 <GPIO_SetBits>
     f44:	a06ff06f          	j	14a <__riscv_restore_4>
     f48:	2321                	jal	1450 <GPIO_SetBits>
     f4a:	b7d5                	j	f2e <I2C_WriteDatas+0x26>
     f4c:	0405                	addi	s0,s0,1
     f4e:	fff44583          	lbu	a1,-1(s0)
     f52:	40013537          	lui	a0,0x40013
     f56:	2581                	jal	1596 <SPI_I2S_SendData>
     f58:	bfe1                	j	f30 <I2C_WriteDatas+0x28>

00000f5a <OLED_clear_line>:
     f5a:	9d6ff2ef          	jal	t0,130 <__riscv_save_0>
     f5e:	157d                	addi	a0,a0,-1
     f60:	1141                	addi	sp,sp,-16
     f62:	0ff57513          	andi	a0,a0,255
     f66:	227f07b7          	lui	a5,0x227f0
     f6a:	02178793          	addi	a5,a5,33 # 227f0021 <_eusrstack+0x27eb021>
     f6e:	8648                	sb	a0,12(sp)
     f70:	fb056513          	ori	a0,a0,-80
     f74:	c43e                	sw	a5,8(sp)
     f76:	8748                	sb	a0,14(sp)
     f78:	479d                	li	a5,7
     f7a:	84ae                	mv	s1,a1
     f7c:	4505                	li	a0,1
     f7e:	08000593          	li	a1,128
     f82:	86dc                	sb	a5,13(sp)
     f84:	73d000ef          	jal	ra,1ec0 <calloc>
     f88:	86a1a423          	sw	a0,-1944(gp) # 20000280 <buffer>
     f8c:	c515                	beqz	a0,fb8 <OLED_clear_line+0x5e>
     f8e:	86818413          	addi	s0,gp,-1944 # 20000280 <buffer>
     f92:	c499                	beqz	s1,fa0 <OLED_clear_line+0x46>
     f94:	08000613          	li	a2,128
     f98:	0ff00593          	li	a1,255
     f9c:	9c4ff0ef          	jal	ra,160 <memset>
     fa0:	461d                	li	a2,7
     fa2:	002c                	addi	a1,sp,8
     fa4:	4505                	li	a0,1
     fa6:	378d                	jal	f08 <I2C_WriteDatas>
     fa8:	400c                	lw	a1,0(s0)
     faa:	4501                	li	a0,0
     fac:	08000613          	li	a2,128
     fb0:	3fa1                	jal	f08 <I2C_WriteDatas>
     fb2:	4008                	lw	a0,0(s0)
     fb4:	719000ef          	jal	ra,1ecc <free>
     fb8:	4505                	li	a0,1
     fba:	79a000ef          	jal	ra,1754 <Delay_Ms>
     fbe:	0141                	addi	sp,sp,16
     fc0:	994ff06f          	j	154 <__riscv_restore_0>

00000fc4 <OLED_Clear>:
     fc4:	96cff2ef          	jal	t0,130 <__riscv_save_0>
     fc8:	4405                	li	s0,1
     fca:	44a5                	li	s1,9
     fcc:	8522                	mv	a0,s0
     fce:	0405                	addi	s0,s0,1
     fd0:	4581                	li	a1,0
     fd2:	0ff47413          	andi	s0,s0,255
     fd6:	3751                	jal	f5a <OLED_clear_line>
     fd8:	fe941ae3          	bne	s0,s1,fcc <OLED_Clear+0x8>
     fdc:	4505                	li	a0,1
     fde:	776000ef          	jal	ra,1754 <Delay_Ms>
     fe2:	972ff06f          	j	154 <__riscv_restore_0>

00000fe6 <OLED_Init>:
     fe6:	94aff2ef          	jal	t0,130 <__riscv_save_0>
     fea:	a880d7b7          	lui	a5,0xa880d
     fee:	1101                	addi	sp,sp,-32
     ff0:	5ae78793          	addi	a5,a5,1454 # a880d5ae <_eusrstack+0x888085ae>
     ff4:	c23e                	sw	a5,4(sp)
     ff6:	4000d7b7          	lui	a5,0x4000d
     ffa:	31f78793          	addi	a5,a5,799 # 4000d31f <_eusrstack+0x2000831f>
     ffe:	c43e                	sw	a5,8(sp)
    1000:	c8a117b7          	lui	a5,0xc8a11
    1004:	48d78793          	addi	a5,a5,1165 # c8a1148d <_eusrstack+0xa8a0c48d>
    1008:	c63e                	sw	a5,12(sp)
    100a:	8f8107b7          	lui	a5,0x8f810
    100e:	2da78793          	addi	a5,a5,730 # 8f8102da <_eusrstack+0x6f80b2da>
    1012:	c83e                	sw	a5,16(sp)
    1014:	40dbf7b7          	lui	a5,0x40dbf
    1018:	1d978793          	addi	a5,a5,473 # 40dbf1d9 <_eusrstack+0x20dba1d9>
    101c:	ca3e                	sw	a5,20(sp)
    101e:	2e0027b7          	lui	a5,0x2e002
    1022:	0a478793          	addi	a5,a5,164 # 2e0020a4 <_eusrstack+0xdffd0a4>
    1026:	cc3e                	sw	a5,24(sp)
    1028:	77ed                	lui	a5,0xffffb
    102a:	fa678793          	addi	a5,a5,-90 # ffffafa6 <_eusrstack+0xdfff5fa6>
    102e:	86fc                	sh	a5,28(sp)
    1030:	3545                	jal	ed0 <OLED_RESET>
    1032:	004c                	addi	a1,sp,4
    1034:	4669                	li	a2,26
    1036:	4505                	li	a0,1
    1038:	3dc1                	jal	f08 <I2C_WriteDatas>
    103a:	3769                	jal	fc4 <OLED_Clear>
    103c:	4501                	li	a0,0
    103e:	6105                	addi	sp,sp,32
    1040:	914ff06f          	j	154 <__riscv_restore_0>

00001044 <OLED_calcx>:
    1044:	fff50713          	addi	a4,a0,-1 # 40012fff <_eusrstack+0x2000dfff>
    1048:	47b9                	li	a5,14
    104a:	00e7ea63          	bltu	a5,a4,105e <OLED_calcx+0x1a>
    104e:	47c1                	li	a5,16
    1050:	40a78533          	sub	a0,a5,a0
    1054:	8505                	srai	a0,a0,0x1
    1056:	0505                	addi	a0,a0,1
    1058:	0ff57513          	andi	a0,a0,255
    105c:	8082                	ret
    105e:	4501                	li	a0,0
    1060:	8082                	ret

00001062 <OLED_text_xy>:
    1062:	8a6ff2ef          	jal	t0,108 <__riscv_save_10>
    1066:	7179                	addi	sp,sp,-48
    1068:	167d                	addi	a2,a2,-1
    106a:	0ff67413          	andi	s0,a2,255
    106e:	c62e                	sw	a1,12(sp)
    1070:	8ab6                	mv	s5,a3
    1072:	8a2a                	mv	s4,a0
    1074:	0a8010ef          	jal	ra,211c <strlen>
    1078:	45b2                	lw	a1,12(sp)
    107a:	6785                	lui	a5,0x1
    107c:	86fc                	sh	a5,28(sp)
    107e:	02100793          	li	a5,33
    1082:	02f10023          	sb	a5,32(sp)
    1086:	15fd                	addi	a1,a1,-1
    1088:	6789                	lui	a5,0x2
    108a:	058e                	slli	a1,a1,0x3
    108c:	27f78793          	addi	a5,a5,639 # 227f <_strtol_l.isra.0+0x11d>
    1090:	02b100a3          	sb	a1,33(sp)
    1094:	02f11123          	sh	a5,34(sp)
    1098:	89aa                	mv	s3,a0
    109a:	479d                	li	a5,7
    109c:	4619                	li	a2,6
    109e:	100c                	addi	a1,sp,32
    10a0:	4505                	li	a0,1
    10a2:	6911                	lui	s2,0x4
    10a4:	00010f23          	sb	zero,30(sp)
    10a8:	d402                	sw	zero,40(sp)
    10aa:	d602                	sw	zero,44(sp)
    10ac:	02810223          	sb	s0,36(sp)
    10b0:	02f102a3          	sb	a5,37(sp)
    10b4:	4481                	li	s1,0
    10b6:	3d89                	jal	f08 <I2C_WriteDatas>
    10b8:	4b29                	li	s6,10
    10ba:	98c90913          	addi	s2,s2,-1652 # 398c <font8x8>
    10be:	02f10b93          	addi	s7,sp,47
    10c2:	0134c563          	blt	s1,s3,10cc <OLED_text_xy+0x6a>
    10c6:	6145                	addi	sp,sp,48
    10c8:	878ff06f          	j	140 <__riscv_restore_10>
    10cc:	009a07b3          	add	a5,s4,s1
    10d0:	00078783          	lb	a5,0(a5)
    10d4:	03679163          	bne	a5,s6,10f6 <OLED_text_xy+0x94>
    10d8:	0405                	addi	s0,s0,1
    10da:	0ff47413          	andi	s0,s0,255
    10de:	fb046793          	ori	a5,s0,-80
    10e2:	00f10f23          	sb	a5,30(sp)
    10e6:	460d                	li	a2,3
    10e8:	086c                	addi	a1,sp,28
    10ea:	4505                	li	a0,1
    10ec:	0485                	addi	s1,s1,1
    10ee:	3d29                	jal	f08 <I2C_WriteDatas>
    10f0:	0ff4f493          	andi	s1,s1,255
    10f4:	b7f9                	j	10c2 <OLED_text_xy+0x60>
    10f6:	0ff7f793          	andi	a5,a5,255
    10fa:	078e                	slli	a5,a5,0x3
    10fc:	97ca                	add	a5,a5,s2
    10fe:	4398                	lw	a4,0(a5)
    1100:	43dc                	lw	a5,4(a5)
    1102:	d43a                	sw	a4,40(sp)
    1104:	d63e                	sw	a5,44(sp)
    1106:	000a8a63          	beqz	s5,111a <OLED_text_xy+0xb8>
    110a:	103c                	addi	a5,sp,40
    110c:	3398                	lbu	a4,1(a5)
    110e:	0785                	addi	a5,a5,1
    1110:	fff74713          	not	a4,a4
    1114:	a398                	sb	a4,0(a5)
    1116:	ff779be3          	bne	a5,s7,110c <OLED_text_xy+0xaa>
    111a:	4621                	li	a2,8
    111c:	102c                	addi	a1,sp,40
    111e:	4501                	li	a0,0
    1120:	b7f1                	j	10ec <OLED_text_xy+0x8a>

00001122 <SystemInit>:
    1122:	400217b7          	lui	a5,0x40021
    1126:	4398                	lw	a4,0(a5)
    1128:	f90006b7          	lui	a3,0xf9000
    112c:	f5f68693          	addi	a3,a3,-161 # f8ffff5f <_eusrstack+0xd8ffaf5f>
    1130:	00176713          	ori	a4,a4,1
    1134:	c398                	sw	a4,0(a5)
    1136:	43d8                	lw	a4,4(a5)
    1138:	05076713          	ori	a4,a4,80
    113c:	c3d8                	sw	a4,4(a5)
    113e:	43d8                	lw	a4,4(a5)
    1140:	8f75                	and	a4,a4,a3
    1142:	c3d8                	sw	a4,4(a5)
    1144:	40022737          	lui	a4,0x40022
    1148:	4314                	lw	a3,0(a4)
    114a:	9af1                	andi	a3,a3,-4
    114c:	c314                	sw	a3,0(a4)
    114e:	4314                	lw	a3,0(a4)
    1150:	0026e693          	ori	a3,a3,2
    1154:	c314                	sw	a3,0(a4)
    1156:	43d8                	lw	a4,4(a5)
    1158:	f0f77713          	andi	a4,a4,-241
    115c:	c3d8                	sw	a4,4(a5)
    115e:	43d8                	lw	a4,4(a5)
    1160:	c3d8                	sw	a4,4(a5)
    1162:	8082                	ret

00001164 <SystemCoreClockUpdate>:
    1164:	400216b7          	lui	a3,0x40021
    1168:	42dc                	lw	a5,4(a3)
    116a:	8391                	srli	a5,a5,0x4
    116c:	00f7f713          	andi	a4,a5,15
    1170:	200007b7          	lui	a5,0x20000
    1174:	02878793          	addi	a5,a5,40 # 20000028 <AHBPrescTable>
    1178:	97ba                	add	a5,a5,a4
    117a:	239c                	lbu	a5,0(a5)
    117c:	42d4                	lw	a3,4(a3)
    117e:	02dc7737          	lui	a4,0x2dc7
    1182:	0ff7f793          	andi	a5,a5,255
    1186:	c0070713          	addi	a4,a4,-1024 # 2dc6c00 <_data_lma+0x2dc2b04>
    118a:	0806f693          	andi	a3,a3,128
    118e:	00f75633          	srl	a2,a4,a5
    1192:	e299                	bnez	a3,1198 <SystemCoreClockUpdate+0x34>
    1194:	02f75633          	divu	a2,a4,a5
    1198:	82c1a623          	sw	a2,-2004(gp) # 20000244 <SystemCoreClock>
    119c:	8082                	ret

0000119e <ADC1_IRQHandler>:
    119e:	a001                	j	119e <ADC1_IRQHandler>

000011a0 <handle_reset>:
    11a0:	20000197          	auipc	gp,0x20000
    11a4:	87818193          	addi	gp,gp,-1928 # 20000a18 <__global_pointer$>
    11a8:	20004117          	auipc	sp,0x20004
    11ac:	e5810113          	addi	sp,sp,-424 # 20005000 <_eusrstack>
    11b0:	00003517          	auipc	a0,0x3
    11b4:	f4c50513          	addi	a0,a0,-180 # 40fc <_data_lma>
    11b8:	1ffff597          	auipc	a1,0x1ffff
    11bc:	e4858593          	addi	a1,a1,-440 # 20000000 <_data_vma>
    11c0:	84818613          	addi	a2,gp,-1976 # 20000260 <_edata>
    11c4:	00c5fa63          	bgeu	a1,a2,11d8 <handle_reset+0x38>
    11c8:	00052283          	lw	t0,0(a0)
    11cc:	0055a023          	sw	t0,0(a1)
    11d0:	0511                	addi	a0,a0,4
    11d2:	0591                	addi	a1,a1,4
    11d4:	fec5eae3          	bltu	a1,a2,11c8 <handle_reset+0x28>
    11d8:	84818513          	addi	a0,gp,-1976 # 20000260 <_edata>
    11dc:	90018593          	addi	a1,gp,-1792 # 20000318 <_ebss>
    11e0:	00b57763          	bgeu	a0,a1,11ee <handle_reset+0x4e>
    11e4:	00052023          	sw	zero,0(a0)
    11e8:	0511                	addi	a0,a0,4
    11ea:	feb56de3          	bltu	a0,a1,11e4 <handle_reset+0x44>
    11ee:	42fd                	li	t0,31
    11f0:	bc029073          	csrw	0xbc0,t0
    11f4:	428d                	li	t0,3
    11f6:	80429073          	csrw	0x804,t0
    11fa:	08800293          	li	t0,136
    11fe:	30029073          	csrw	mstatus,t0
    1202:	fffff297          	auipc	t0,0xfffff
    1206:	e0228293          	addi	t0,t0,-510 # 4 <_einit>
    120a:	0032e293          	ori	t0,t0,3
    120e:	30529073          	csrw	mtvec,t0
    1212:	f11ff0ef          	jal	ra,1122 <SystemInit>
    1216:	00000297          	auipc	t0,0x0
    121a:	80c28293          	addi	t0,t0,-2036 # a22 <main>
    121e:	34129073          	csrw	mepc,t0
    1222:	30200073          	mret

00001226 <DBGMCU_GetCHIPID>:
    1226:	1ffff7b7          	lui	a5,0x1ffff
    122a:	7047a503          	lw	a0,1796(a5) # 1ffff704 <_data_lma+0x1fffb608>
    122e:	8082                	ret

00001230 <EXTI_Init>:
    1230:	4158                	lw	a4,4(a0)
    1232:	00052803          	lw	a6,0(a0)
    1236:	454c                	lw	a1,12(a0)
    1238:	40010637          	lui	a2,0x40010
    123c:	40060793          	addi	a5,a2,1024 # 40010400 <_eusrstack+0x2000b400>
    1240:	973e                	add	a4,a4,a5
    1242:	fff84693          	not	a3,a6
    1246:	c5b1                	beqz	a1,1292 <EXTI_Init+0x62>
    1248:	40062583          	lw	a1,1024(a2)
    124c:	8df5                	and	a1,a1,a3
    124e:	40b62023          	sw	a1,1024(a2)
    1252:	43d0                	lw	a2,4(a5)
    1254:	8ef1                	and	a3,a3,a2
    1256:	c3d4                	sw	a3,4(a5)
    1258:	4314                	lw	a3,0(a4)
    125a:	0106e6b3          	or	a3,a3,a6
    125e:	c314                	sw	a3,0(a4)
    1260:	4118                	lw	a4,0(a0)
    1262:	4790                	lw	a2,8(a5)
    1264:	fff74693          	not	a3,a4
    1268:	8e75                	and	a2,a2,a3
    126a:	c790                	sw	a2,8(a5)
    126c:	47d0                	lw	a2,12(a5)
    126e:	8ef1                	and	a3,a3,a2
    1270:	c7d4                	sw	a3,12(a5)
    1272:	4514                	lw	a3,8(a0)
    1274:	4641                	li	a2,16
    1276:	00c69963          	bne	a3,a2,1288 <EXTI_Init+0x58>
    127a:	4794                	lw	a3,8(a5)
    127c:	8ed9                	or	a3,a3,a4
    127e:	c794                	sw	a3,8(a5)
    1280:	47d4                	lw	a3,12(a5)
    1282:	8f55                	or	a4,a4,a3
    1284:	c7d8                	sw	a4,12(a5)
    1286:	8082                	ret
    1288:	97b6                	add	a5,a5,a3
    128a:	4394                	lw	a3,0(a5)
    128c:	8f55                	or	a4,a4,a3
    128e:	c398                	sw	a4,0(a5)
    1290:	8082                	ret
    1292:	431c                	lw	a5,0(a4)
    1294:	8ff5                	and	a5,a5,a3
    1296:	c31c                	sw	a5,0(a4)
    1298:	8082                	ret

0000129a <EXTI_GetITStatus>:
    129a:	400107b7          	lui	a5,0x40010
    129e:	40078713          	addi	a4,a5,1024 # 40010400 <_eusrstack+0x2000b400>
    12a2:	4007a783          	lw	a5,1024(a5)
    12a6:	4b58                	lw	a4,20(a4)
    12a8:	8f69                	and	a4,a4,a0
    12aa:	c709                	beqz	a4,12b4 <EXTI_GetITStatus+0x1a>
    12ac:	8d7d                	and	a0,a0,a5
    12ae:	00a03533          	snez	a0,a0
    12b2:	8082                	ret
    12b4:	4501                	li	a0,0
    12b6:	8082                	ret

000012b8 <EXTI_ClearITPendingBit>:
    12b8:	400107b7          	lui	a5,0x40010
    12bc:	40a7aa23          	sw	a0,1044(a5) # 40010414 <_eusrstack+0x2000b414>
    12c0:	8082                	ret

000012c2 <GPIO_Init>:
    12c2:	4598                	lw	a4,8(a1)
    12c4:	01077793          	andi	a5,a4,16
    12c8:	00f77813          	andi	a6,a4,15
    12cc:	c781                	beqz	a5,12d4 <GPIO_Init+0x12>
    12ce:	41dc                	lw	a5,4(a1)
    12d0:	00f86833          	or	a6,a6,a5
    12d4:	4194                	lw	a3,0(a1)
    12d6:	4781                	li	a5,0
    12d8:	0ff6f613          	andi	a2,a3,255
    12dc:	c239                	beqz	a2,1322 <GPIO_Init+0x60>
    12de:	411c                	lw	a5,0(a0)
    12e0:	4601                	li	a2,0
    12e2:	4e85                	li	t4,1
    12e4:	4f3d                	li	t5,15
    12e6:	02800f93          	li	t6,40
    12ea:	04800293          	li	t0,72
    12ee:	4e21                	li	t3,8
    12f0:	00ce98b3          	sll	a7,t4,a2
    12f4:	0116f5b3          	and	a1,a3,a7
    12f8:	02b89163          	bne	a7,a1,131a <GPIO_Init+0x58>
    12fc:	00261313          	slli	t1,a2,0x2
    1300:	006f15b3          	sll	a1,t5,t1
    1304:	fff5c593          	not	a1,a1
    1308:	8fed                	and	a5,a5,a1
    130a:	00681333          	sll	t1,a6,t1
    130e:	00f367b3          	or	a5,t1,a5
    1312:	0ff71563          	bne	a4,t6,13fc <GPIO_Init+0x13a>
    1316:	01152a23          	sw	a7,20(a0)
    131a:	0605                	addi	a2,a2,1
    131c:	fdc61ae3          	bne	a2,t3,12f0 <GPIO_Init+0x2e>
    1320:	c11c                	sw	a5,0(a0)
    1322:	6641                	lui	a2,0x10
    1324:	f0060613          	addi	a2,a2,-256 # ff00 <_data_lma+0xbe04>
    1328:	8e75                	and	a2,a2,a3
    132a:	c249                	beqz	a2,13ac <GPIO_Init+0xea>
    132c:	1ffff637          	lui	a2,0x1ffff
    1330:	70462603          	lw	a2,1796(a2) # 1ffff704 <_data_lma+0x1fffb608>
    1334:	0f067613          	andi	a2,a2,240
    1338:	e27d                	bnez	a2,141e <GPIO_Init+0x15c>
    133a:	40011637          	lui	a2,0x40011
    133e:	80060593          	addi	a1,a2,-2048 # 40010800 <_eusrstack+0x2000b800>
    1342:	0cb51263          	bne	a0,a1,1406 <GPIO_Init+0x144>
    1346:	8301a783          	lw	a5,-2000(gp) # 20000248 <CFGHR_tmpA>
    134a:	45a1                	li	a1,8
    134c:	4e85                	li	t4,1
    134e:	4f3d                	li	t5,15
    1350:	02800f93          	li	t6,40
    1354:	04800293          	li	t0,72
    1358:	4e41                	li	t3,16
    135a:	00be9333          	sll	t1,t4,a1
    135e:	0066f633          	and	a2,a3,t1
    1362:	02c31263          	bne	t1,a2,1386 <GPIO_Init+0xc4>
    1366:	00259613          	slli	a2,a1,0x2
    136a:	1601                	addi	a2,a2,-32
    136c:	00cf18b3          	sll	a7,t5,a2
    1370:	fff8c893          	not	a7,a7
    1374:	00f8f7b3          	and	a5,a7,a5
    1378:	00c81633          	sll	a2,a6,a2
    137c:	8fd1                	or	a5,a5,a2
    137e:	0bf71263          	bne	a4,t6,1422 <GPIO_Init+0x160>
    1382:	00652a23          	sw	t1,20(a0)
    1386:	0585                	addi	a1,a1,1
    1388:	fdc599e3          	bne	a1,t3,135a <GPIO_Init+0x98>
    138c:	c15c                	sw	a5,4(a0)
    138e:	1ffff637          	lui	a2,0x1ffff
    1392:	70462603          	lw	a2,1796(a2) # 1ffff704 <_data_lma+0x1fffb608>
    1396:	0f067613          	andi	a2,a2,240
    139a:	ea09                	bnez	a2,13ac <GPIO_Init+0xea>
    139c:	40011637          	lui	a2,0x40011
    13a0:	80060593          	addi	a1,a2,-2048 # 40010800 <_eusrstack+0x2000b800>
    13a4:	08b51463          	bne	a0,a1,142c <GPIO_Init+0x16a>
    13a8:	82f1a823          	sw	a5,-2000(gp) # 20000248 <CFGHR_tmpA>
    13ac:	67c1                	lui	a5,0x10
    13ae:	04f6e663          	bltu	a3,a5,13fa <GPIO_Init+0x138>
    13b2:	4d50                	lw	a2,28(a0)
    13b4:	4781                	li	a5,0
    13b6:	4e05                	li	t3,1
    13b8:	4f3d                	li	t5,15
    13ba:	02800f93          	li	t6,40
    13be:	04800293          	li	t0,72
    13c2:	4ea1                	li	t4,8
    13c4:	01078593          	addi	a1,a5,16 # 10010 <_data_lma+0xbf14>
    13c8:	00be15b3          	sll	a1,t3,a1
    13cc:	00b6f8b3          	and	a7,a3,a1
    13d0:	03159163          	bne	a1,a7,13f2 <GPIO_Init+0x130>
    13d4:	00279893          	slli	a7,a5,0x2
    13d8:	011f1333          	sll	t1,t5,a7
    13dc:	fff34313          	not	t1,t1
    13e0:	00c37633          	and	a2,t1,a2
    13e4:	011818b3          	sll	a7,a6,a7
    13e8:	00c8e633          	or	a2,a7,a2
    13ec:	05f71c63          	bne	a4,t6,1444 <GPIO_Init+0x182>
    13f0:	c94c                	sw	a1,20(a0)
    13f2:	0785                	addi	a5,a5,1
    13f4:	fdd798e3          	bne	a5,t4,13c4 <GPIO_Init+0x102>
    13f8:	cd50                	sw	a2,28(a0)
    13fa:	8082                	ret
    13fc:	f0571fe3          	bne	a4,t0,131a <GPIO_Init+0x58>
    1400:	01152823          	sw	a7,16(a0)
    1404:	bf19                	j	131a <GPIO_Init+0x58>
    1406:	c0060593          	addi	a1,a2,-1024
    140a:	00b51563          	bne	a0,a1,1414 <GPIO_Init+0x152>
    140e:	8341a783          	lw	a5,-1996(gp) # 2000024c <CFGHR_tmpB>
    1412:	bf25                	j	134a <GPIO_Init+0x88>
    1414:	f2c51be3          	bne	a0,a2,134a <GPIO_Init+0x88>
    1418:	8381a783          	lw	a5,-1992(gp) # 20000250 <CFGHR_tmpC>
    141c:	b73d                	j	134a <GPIO_Init+0x88>
    141e:	415c                	lw	a5,4(a0)
    1420:	b72d                	j	134a <GPIO_Init+0x88>
    1422:	f65712e3          	bne	a4,t0,1386 <GPIO_Init+0xc4>
    1426:	00652823          	sw	t1,16(a0)
    142a:	bfb1                	j	1386 <GPIO_Init+0xc4>
    142c:	c0060593          	addi	a1,a2,-1024
    1430:	00b51563          	bne	a0,a1,143a <GPIO_Init+0x178>
    1434:	82f1aa23          	sw	a5,-1996(gp) # 2000024c <CFGHR_tmpB>
    1438:	bf95                	j	13ac <GPIO_Init+0xea>
    143a:	f6c519e3          	bne	a0,a2,13ac <GPIO_Init+0xea>
    143e:	82f1ac23          	sw	a5,-1992(gp) # 20000250 <CFGHR_tmpC>
    1442:	b7ad                	j	13ac <GPIO_Init+0xea>
    1444:	fa5717e3          	bne	a4,t0,13f2 <GPIO_Init+0x130>
    1448:	00fe15b3          	sll	a1,t3,a5
    144c:	d10c                	sw	a1,32(a0)
    144e:	b755                	j	13f2 <GPIO_Init+0x130>

00001450 <GPIO_SetBits>:
    1450:	01059793          	slli	a5,a1,0x10
    1454:	83c1                	srli	a5,a5,0x10
    1456:	c91c                	sw	a5,16(a0)
    1458:	81c1                	srli	a1,a1,0x10
    145a:	d10c                	sw	a1,32(a0)
    145c:	8082                	ret

0000145e <GPIO_ResetBits>:
    145e:	c94c                	sw	a1,20(a0)
    1460:	8082                	ret

00001462 <GPIO_EXTILineConfig>:
    1462:	00f5f793          	andi	a5,a1,15
    1466:	8191                	srli	a1,a1,0x4
    1468:	00259713          	slli	a4,a1,0x2
    146c:	400105b7          	lui	a1,0x40010
    1470:	95ba                	add	a1,a1,a4
    1472:	4594                	lw	a3,8(a1)
    1474:	0786                	slli	a5,a5,0x1
    1476:	470d                	li	a4,3
    1478:	00f71733          	sll	a4,a4,a5
    147c:	fff74713          	not	a4,a4
    1480:	8f75                	and	a4,a4,a3
    1482:	c598                	sw	a4,8(a1)
    1484:	4598                	lw	a4,8(a1)
    1486:	00f51533          	sll	a0,a0,a5
    148a:	8d59                	or	a0,a0,a4
    148c:	c588                	sw	a0,8(a1)
    148e:	8082                	ret

00001490 <NVIC_PriorityGroupConfig>:
    1490:	86a1a623          	sw	a0,-1940(gp) # 20000284 <NVIC_Priority_Group>
    1494:	8082                	ret

00001496 <NVIC_Init>:
    1496:	86c1a703          	lw	a4,-1940(gp) # 20000284 <NVIC_Priority_Group>
    149a:	4785                	li	a5,1
    149c:	2114                	lbu	a3,0(a0)
    149e:	02f71063          	bne	a4,a5,14be <NVIC_Init+0x28>
    14a2:	311c                	lbu	a5,1(a0)
    14a4:	02e79c63          	bne	a5,a4,14dc <NVIC_Init+0x46>
    14a8:	213c                	lbu	a5,2(a0)
    14aa:	0796                	slli	a5,a5,0x5
    14ac:	f807e793          	ori	a5,a5,-128
    14b0:	e000e737          	lui	a4,0xe000e
    14b4:	0ff7f793          	andi	a5,a5,255
    14b8:	9736                	add	a4,a4,a3
    14ba:	40f70023          	sb	a5,1024(a4) # e000e400 <_eusrstack+0xc0009400>
    14be:	4705                	li	a4,1
    14c0:	0056d793          	srli	a5,a3,0x5
    14c4:	00d71733          	sll	a4,a4,a3
    14c8:	4154                	lw	a3,4(a0)
    14ca:	ce89                	beqz	a3,14e4 <NVIC_Init+0x4e>
    14cc:	04078793          	addi	a5,a5,64
    14d0:	078a                	slli	a5,a5,0x2
    14d2:	e000e6b7          	lui	a3,0xe000e
    14d6:	97b6                	add	a5,a5,a3
    14d8:	c398                	sw	a4,0(a5)
    14da:	8082                	ret
    14dc:	f3ed                	bnez	a5,14be <NVIC_Init+0x28>
    14de:	213c                	lbu	a5,2(a0)
    14e0:	0796                	slli	a5,a5,0x5
    14e2:	b7f9                	j	14b0 <NVIC_Init+0x1a>
    14e4:	06078793          	addi	a5,a5,96
    14e8:	b7e5                	j	14d0 <NVIC_Init+0x3a>

000014ea <RCC_GetClocksFreq>:
    14ea:	02dc77b7          	lui	a5,0x2dc7
    14ee:	c0078793          	addi	a5,a5,-1024 # 2dc6c00 <_data_lma+0x2dc2b04>
    14f2:	c11c                	sw	a5,0(a0)
    14f4:	40021637          	lui	a2,0x40021
    14f8:	4258                	lw	a4,4(a2)
    14fa:	8311                	srli	a4,a4,0x4
    14fc:	00f77693          	andi	a3,a4,15
    1500:	20000737          	lui	a4,0x20000
    1504:	03870713          	addi	a4,a4,56 # 20000038 <APBAHBPrescTable>
    1508:	9736                	add	a4,a4,a3
    150a:	2314                	lbu	a3,0(a4)
    150c:	4250                	lw	a2,4(a2)
    150e:	0ff6f693          	andi	a3,a3,255
    1512:	08067613          	andi	a2,a2,128
    1516:	00d7d733          	srl	a4,a5,a3
    151a:	e219                	bnez	a2,1520 <RCC_GetClocksFreq+0x36>
    151c:	02d7d733          	divu	a4,a5,a3
    1520:	c158                	sw	a4,4(a0)
    1522:	c518                	sw	a4,8(a0)
    1524:	c558                	sw	a4,12(a0)
    1526:	8082                	ret

00001528 <RCC_APB2PeriphClockCmd>:
    1528:	c599                	beqz	a1,1536 <RCC_APB2PeriphClockCmd+0xe>
    152a:	40021737          	lui	a4,0x40021
    152e:	4f1c                	lw	a5,24(a4)
    1530:	8d5d                	or	a0,a0,a5
    1532:	cf08                	sw	a0,24(a4)
    1534:	8082                	ret
    1536:	400217b7          	lui	a5,0x40021
    153a:	4f98                	lw	a4,24(a5)
    153c:	fff54513          	not	a0,a0
    1540:	8d79                	and	a0,a0,a4
    1542:	cf88                	sw	a0,24(a5)
    1544:	8082                	ret

00001546 <RCC_APB1PeriphClockCmd>:
    1546:	c599                	beqz	a1,1554 <RCC_APB1PeriphClockCmd+0xe>
    1548:	40021737          	lui	a4,0x40021
    154c:	4f5c                	lw	a5,28(a4)
    154e:	8d5d                	or	a0,a0,a5
    1550:	cf48                	sw	a0,28(a4)
    1552:	8082                	ret
    1554:	400217b7          	lui	a5,0x40021
    1558:	4fd8                	lw	a4,28(a5)
    155a:	fff54513          	not	a0,a0
    155e:	8d79                	and	a0,a0,a4
    1560:	cfc8                	sw	a0,28(a5)
    1562:	8082                	ret

00001564 <SPI_Init>:
    1564:	211a                	lhu	a4,0(a0)
    1566:	678d                	lui	a5,0x3
    1568:	04078793          	addi	a5,a5,64 # 3040 <__swbuf_r+0x96>
    156c:	21b6                	lhu	a3,2(a1)
    156e:	8f7d                	and	a4,a4,a5
    1570:	219e                	lhu	a5,0(a1)
    1572:	8fd5                	or	a5,a5,a3
    1574:	21d6                	lhu	a3,4(a1)
    1576:	8fd5                	or	a5,a5,a3
    1578:	21f6                	lhu	a3,6(a1)
    157a:	8fd5                	or	a5,a5,a3
    157c:	2596                	lhu	a3,8(a1)
    157e:	8fd5                	or	a5,a5,a3
    1580:	25b6                	lhu	a3,10(a1)
    1582:	8fd5                	or	a5,a5,a3
    1584:	25d6                	lhu	a3,12(a1)
    1586:	8fd5                	or	a5,a5,a3
    1588:	25f6                	lhu	a3,14(a1)
    158a:	8fd5                	or	a5,a5,a3
    158c:	8fd9                	or	a5,a5,a4
    158e:	a11e                	sh	a5,0(a0)
    1590:	299e                	lhu	a5,16(a1)
    1592:	a91e                	sh	a5,16(a0)
    1594:	8082                	ret

00001596 <SPI_I2S_SendData>:
    1596:	251e                	lhu	a5,8(a0)
    1598:	0807f793          	andi	a5,a5,128
    159c:	ffed                	bnez	a5,1596 <SPI_I2S_SendData>
    159e:	a54e                	sh	a1,12(a0)
    15a0:	251e                	lhu	a5,8(a0)
    15a2:	0807f793          	andi	a5,a5,128
    15a6:	ffed                	bnez	a5,15a0 <SPI_I2S_SendData+0xa>
    15a8:	8082                	ret

000015aa <TIM_TimeBaseInit>:
    15aa:	211e                	lhu	a5,0(a0)
    15ac:	40013737          	lui	a4,0x40013
    15b0:	c0070713          	addi	a4,a4,-1024 # 40012c00 <_eusrstack+0x2000dc00>
    15b4:	07c2                	slli	a5,a5,0x10
    15b6:	83c1                	srli	a5,a5,0x10
    15b8:	00e50663          	beq	a0,a4,15c4 <TIM_TimeBaseInit+0x1a>
    15bc:	40000737          	lui	a4,0x40000
    15c0:	00e51663          	bne	a0,a4,15cc <TIM_TimeBaseInit+0x22>
    15c4:	21ba                	lhu	a4,2(a1)
    15c6:	f8f7f793          	andi	a5,a5,-113
    15ca:	8fd9                	or	a5,a5,a4
    15cc:	21fa                	lhu	a4,6(a1)
    15ce:	cff7f793          	andi	a5,a5,-769
    15d2:	07c2                	slli	a5,a5,0x10
    15d4:	83c1                	srli	a5,a5,0x10
    15d6:	8fd9                	or	a5,a5,a4
    15d8:	a11e                	sh	a5,0(a0)
    15da:	21de                	lhu	a5,4(a1)
    15dc:	b55e                	sh	a5,44(a0)
    15de:	219e                	lhu	a5,0(a1)
    15e0:	b51e                	sh	a5,40(a0)
    15e2:	400137b7          	lui	a5,0x40013
    15e6:	c0078793          	addi	a5,a5,-1024 # 40012c00 <_eusrstack+0x2000dc00>
    15ea:	00f50663          	beq	a0,a5,15f6 <TIM_TimeBaseInit+0x4c>
    15ee:	400007b7          	lui	a5,0x40000
    15f2:	00f51463          	bne	a0,a5,15fa <TIM_TimeBaseInit+0x50>
    15f6:	259c                	lbu	a5,8(a1)
    15f8:	b91e                	sh	a5,48(a0)
    15fa:	4785                	li	a5,1
    15fc:	a95e                	sh	a5,20(a0)
    15fe:	8082                	ret

00001600 <TIM_TimeBaseStructInit>:
    1600:	57fd                	li	a5,-1
    1602:	a15e                	sh	a5,4(a0)
    1604:	00051023          	sh	zero,0(a0)
    1608:	00051323          	sh	zero,6(a0)
    160c:	00051123          	sh	zero,2(a0)
    1610:	00050423          	sb	zero,8(a0)
    1614:	8082                	ret

00001616 <TIM_GetITStatus>:
    1616:	291e                	lhu	a5,16(a0)
    1618:	254a                	lhu	a0,12(a0)
    161a:	8fed                	and	a5,a5,a1
    161c:	0542                	slli	a0,a0,0x10
    161e:	8141                	srli	a0,a0,0x10
    1620:	c789                	beqz	a5,162a <TIM_GetITStatus+0x14>
    1622:	8d6d                	and	a0,a0,a1
    1624:	00a03533          	snez	a0,a0
    1628:	8082                	ret
    162a:	4501                	li	a0,0
    162c:	8082                	ret

0000162e <TIM_ClearITPendingBit>:
    162e:	fff5c593          	not	a1,a1
    1632:	05c2                	slli	a1,a1,0x10
    1634:	81c1                	srli	a1,a1,0x10
    1636:	a90e                	sh	a1,16(a0)
    1638:	8082                	ret

0000163a <USART_Init>:
    163a:	af7fe2ef          	jal	t0,130 <__riscv_save_0>
    163e:	2916                	lhu	a3,16(a0)
    1640:	77f5                	lui	a5,0xffffd
    1642:	17fd                	addi	a5,a5,-1
    1644:	8ff5                	and	a5,a5,a3
    1646:	21f6                	lhu	a3,6(a1)
    1648:	25da                	lhu	a4,12(a1)
    164a:	1101                	addi	sp,sp,-32
    164c:	8fd5                	or	a5,a5,a3
    164e:	a91e                	sh	a5,16(a0)
    1650:	2556                	lhu	a3,12(a0)
    1652:	77fd                	lui	a5,0xfffff
    1654:	9f378793          	addi	a5,a5,-1549 # ffffe9f3 <_eusrstack+0xdfff99f3>
    1658:	8ff5                	and	a5,a5,a3
    165a:	21d6                	lhu	a3,4(a1)
    165c:	842a                	mv	s0,a0
    165e:	c62e                	sw	a1,12(sp)
    1660:	8fd5                	or	a5,a5,a3
    1662:	2596                	lhu	a3,8(a1)
    1664:	8fd5                	or	a5,a5,a3
    1666:	25b6                	lhu	a3,10(a1)
    1668:	8fd5                	or	a5,a5,a3
    166a:	a55e                	sh	a5,12(a0)
    166c:	295e                	lhu	a5,20(a0)
    166e:	07c2                	slli	a5,a5,0x10
    1670:	83c1                	srli	a5,a5,0x10
    1672:	cff7f793          	andi	a5,a5,-769
    1676:	8fd9                	or	a5,a5,a4
    1678:	a95e                	sh	a5,20(a0)
    167a:	0808                	addi	a0,sp,16
    167c:	35bd                	jal	14ea <RCC_GetClocksFreq>
    167e:	400147b7          	lui	a5,0x40014
    1682:	80078793          	addi	a5,a5,-2048 # 40013800 <_eusrstack+0x2000e800>
    1686:	45b2                	lw	a1,12(sp)
    1688:	02f41e63          	bne	s0,a5,16c4 <USART_Init+0x8a>
    168c:	47f2                	lw	a5,28(sp)
    168e:	4765                	li	a4,25
    1690:	02e787b3          	mul	a5,a5,a4
    1694:	4198                	lw	a4,0(a1)
    1696:	06400693          	li	a3,100
    169a:	070a                	slli	a4,a4,0x2
    169c:	02e7d7b3          	divu	a5,a5,a4
    16a0:	02d7d733          	divu	a4,a5,a3
    16a4:	02d7f7b3          	remu	a5,a5,a3
    16a8:	0712                	slli	a4,a4,0x4
    16aa:	0792                	slli	a5,a5,0x4
    16ac:	03278793          	addi	a5,a5,50
    16b0:	02d7d7b3          	divu	a5,a5,a3
    16b4:	8bbd                	andi	a5,a5,15
    16b6:	8fd9                	or	a5,a5,a4
    16b8:	07c2                	slli	a5,a5,0x10
    16ba:	83c1                	srli	a5,a5,0x10
    16bc:	a41e                	sh	a5,8(s0)
    16be:	6105                	addi	sp,sp,32
    16c0:	a95fe06f          	j	154 <__riscv_restore_0>
    16c4:	47e2                	lw	a5,24(sp)
    16c6:	b7e1                	j	168e <USART_Init+0x54>

000016c8 <USART_Cmd>:
    16c8:	c591                	beqz	a1,16d4 <USART_Cmd+0xc>
    16ca:	255e                	lhu	a5,12(a0)
    16cc:	6709                	lui	a4,0x2
    16ce:	8fd9                	or	a5,a5,a4
    16d0:	a55e                	sh	a5,12(a0)
    16d2:	8082                	ret
    16d4:	255a                	lhu	a4,12(a0)
    16d6:	77f9                	lui	a5,0xffffe
    16d8:	17fd                	addi	a5,a5,-1
    16da:	8ff9                	and	a5,a5,a4
    16dc:	bfd5                	j	16d0 <USART_Cmd+0x8>

000016de <USART_ITConfig>:
    16de:	0ff5f713          	andi	a4,a1,255
    16e2:	4785                	li	a5,1
    16e4:	8315                	srli	a4,a4,0x5
    16e6:	00b795b3          	sll	a1,a5,a1
    16ea:	00f71963          	bne	a4,a5,16fc <USART_ITConfig+0x1e>
    16ee:	00c50793          	addi	a5,a0,12
    16f2:	4398                	lw	a4,0(a5)
    16f4:	ce01                	beqz	a2,170c <USART_ITConfig+0x2e>
    16f6:	8dd9                	or	a1,a1,a4
    16f8:	c38c                	sw	a1,0(a5)
    16fa:	8082                	ret
    16fc:	4689                	li	a3,2
    16fe:	01450793          	addi	a5,a0,20
    1702:	fed718e3          	bne	a4,a3,16f2 <USART_ITConfig+0x14>
    1706:	01050793          	addi	a5,a0,16
    170a:	b7e5                	j	16f2 <USART_ITConfig+0x14>
    170c:	fff5c593          	not	a1,a1
    1710:	8df9                	and	a1,a1,a4
    1712:	b7dd                	j	16f8 <USART_ITConfig+0x1a>

00001714 <USART_SendData>:
    1714:	1ff5f593          	andi	a1,a1,511
    1718:	a14e                	sh	a1,4(a0)
    171a:	8082                	ret

0000171c <USART_ReceiveData>:
    171c:	214a                	lhu	a0,4(a0)
    171e:	1ff57513          	andi	a0,a0,511
    1722:	8082                	ret

00001724 <USART_GetFlagStatus>:
    1724:	210a                	lhu	a0,0(a0)
    1726:	8d6d                	and	a0,a0,a1
    1728:	00a03533          	snez	a0,a0
    172c:	8082                	ret

0000172e <Delay_Init>:
    172e:	82c1a783          	lw	a5,-2004(gp) # 20000244 <SystemCoreClock>
    1732:	007a1737          	lui	a4,0x7a1
    1736:	20070713          	addi	a4,a4,512 # 7a1200 <_data_lma+0x79d104>
    173a:	02e7d7b3          	divu	a5,a5,a4
    173e:	0ff7f793          	andi	a5,a5,255
    1742:	86f18923          	sb	a5,-1934(gp) # 2000028a <p_us>
    1746:	3e800713          	li	a4,1000
    174a:	02e787b3          	mul	a5,a5,a4
    174e:	86f19823          	sh	a5,-1936(gp) # 20000288 <p_ms>
    1752:	8082                	ret

00001754 <Delay_Ms>:
    1754:	e000f7b7          	lui	a5,0xe000f
    1758:	43d8                	lw	a4,4(a5)
    175a:	4681                	li	a3,0
    175c:	9b79                	andi	a4,a4,-2
    175e:	c3d8                	sw	a4,4(a5)
    1760:	8701d703          	lhu	a4,-1936(gp) # 20000288 <p_ms>
    1764:	02a70633          	mul	a2,a4,a0
    1768:	cb90                	sw	a2,16(a5)
    176a:	cbd4                	sw	a3,20(a5)
    176c:	4398                	lw	a4,0(a5)
    176e:	01076713          	ori	a4,a4,16
    1772:	c398                	sw	a4,0(a5)
    1774:	4398                	lw	a4,0(a5)
    1776:	02176713          	ori	a4,a4,33
    177a:	c398                	sw	a4,0(a5)
    177c:	43d8                	lw	a4,4(a5)
    177e:	8b05                	andi	a4,a4,1
    1780:	df75                	beqz	a4,177c <Delay_Ms+0x28>
    1782:	4398                	lw	a4,0(a5)
    1784:	9b79                	andi	a4,a4,-2
    1786:	c398                	sw	a4,0(a5)
    1788:	8082                	ret

0000178a <_write>:
    178a:	98dfe2ef          	jal	t0,116 <__riscv_save_4>
    178e:	400054b7          	lui	s1,0x40005
    1792:	89ae                	mv	s3,a1
    1794:	8932                	mv	s2,a2
    1796:	4401                	li	s0,0
    1798:	c0048493          	addi	s1,s1,-1024 # 40004c00 <_eusrstack+0x1ffffc00>
    179c:	01244563          	blt	s0,s2,17a6 <_write+0x1c>
    17a0:	854a                	mv	a0,s2
    17a2:	9a9fe06f          	j	14a <__riscv_restore_4>
    17a6:	04000593          	li	a1,64
    17aa:	8526                	mv	a0,s1
    17ac:	3fa5                	jal	1724 <USART_GetFlagStatus>
    17ae:	dd65                	beqz	a0,17a6 <_write+0x1c>
    17b0:	008987b3          	add	a5,s3,s0
    17b4:	00078583          	lb	a1,0(a5) # e000f000 <_eusrstack+0xc000a000>
    17b8:	8526                	mv	a0,s1
    17ba:	0405                	addi	s0,s0,1
    17bc:	05c2                	slli	a1,a1,0x10
    17be:	81c1                	srli	a1,a1,0x10
    17c0:	3f91                	jal	1714 <USART_SendData>
    17c2:	bfe9                	j	179c <_write+0x12>

000017c4 <_sbrk>:
    17c4:	83c18713          	addi	a4,gp,-1988 # 20000254 <curbrk.4333>
    17c8:	431c                	lw	a5,0(a4)
    17ca:	90018693          	addi	a3,gp,-1792 # 20000318 <_ebss>
    17ce:	953e                	add	a0,a0,a5
    17d0:	00d56b63          	bltu	a0,a3,17e6 <_sbrk+0x22>
    17d4:	200056b7          	lui	a3,0x20005
    17d8:	80068693          	addi	a3,a3,-2048 # 20004800 <_heap_end>
    17dc:	00a6e563          	bltu	a3,a0,17e6 <_sbrk+0x22>
    17e0:	c308                	sw	a0,0(a4)
    17e2:	853e                	mv	a0,a5
    17e4:	8082                	ret
    17e6:	57fd                	li	a5,-1
    17e8:	bfed                	j	17e2 <_sbrk+0x1e>

000017ea <__divsf3>:
    17ea:	7139                	addi	sp,sp,-64
    17ec:	01755793          	srli	a5,a0,0x17
    17f0:	d84a                	sw	s2,48(sp)
    17f2:	d256                	sw	s5,36(sp)
    17f4:	ce5e                	sw	s7,28(sp)
    17f6:	00951a93          	slli	s5,a0,0x9
    17fa:	01f55913          	srli	s2,a0,0x1f
    17fe:	de06                	sw	ra,60(sp)
    1800:	dc22                	sw	s0,56(sp)
    1802:	da26                	sw	s1,52(sp)
    1804:	d64e                	sw	s3,44(sp)
    1806:	d452                	sw	s4,40(sp)
    1808:	d05a                	sw	s6,32(sp)
    180a:	0ff7f793          	andi	a5,a5,255
    180e:	009ada93          	srli	s5,s5,0x9
    1812:	8bca                	mv	s7,s2
    1814:	12078263          	beqz	a5,1938 <__divsf3+0x14e>
    1818:	0ff00713          	li	a4,255
    181c:	12e78463          	beq	a5,a4,1944 <__divsf3+0x15a>
    1820:	0a8e                	slli	s5,s5,0x3
    1822:	04000737          	lui	a4,0x4000
    1826:	00eaeab3          	or	s5,s5,a4
    182a:	f8178a13          	addi	s4,a5,-127
    182e:	4401                	li	s0,0
    1830:	4b01                	li	s6,0
    1832:	0175d793          	srli	a5,a1,0x17
    1836:	00959493          	slli	s1,a1,0x9
    183a:	0ff7f793          	andi	a5,a5,255
    183e:	80a5                	srli	s1,s1,0x9
    1840:	01f5d993          	srli	s3,a1,0x1f
    1844:	c7fd                	beqz	a5,1932 <__divsf3+0x148>
    1846:	0ff00713          	li	a4,255
    184a:	02e78763          	beq	a5,a4,1878 <__divsf3+0x8e>
    184e:	048e                	slli	s1,s1,0x3
    1850:	f8178793          	addi	a5,a5,-127
    1854:	04000737          	lui	a4,0x4000
    1858:	8cd9                	or	s1,s1,a4
    185a:	40fa0a33          	sub	s4,s4,a5
    185e:	4681                	li	a3,0
    1860:	8c55                	or	s0,s0,a3
    1862:	00002717          	auipc	a4,0x2
    1866:	52a70713          	addi	a4,a4,1322 # 3d8c <font8x8+0x400>
    186a:	040a                	slli	s0,s0,0x2
    186c:	943a                	add	s0,s0,a4
    186e:	401c                	lw	a5,0(s0)
    1870:	01394933          	xor	s2,s2,s3
    1874:	97ba                	add	a5,a5,a4
    1876:	8782                	jr	a5
    1878:	f01a0a13          	addi	s4,s4,-255
    187c:	e8f9                	bnez	s1,1952 <__divsf3+0x168>
    187e:	4689                	li	a3,2
    1880:	8c55                	or	s0,s0,a3
    1882:	00002717          	auipc	a4,0x2
    1886:	54a70713          	addi	a4,a4,1354 # 3dcc <font8x8+0x440>
    188a:	040a                	slli	s0,s0,0x2
    188c:	943a                	add	s0,s0,a4
    188e:	401c                	lw	a5,0(s0)
    1890:	01394933          	xor	s2,s2,s3
    1894:	97ba                	add	a5,a5,a4
    1896:	8782                	jr	a5
    1898:	4901                	li	s2,0
    189a:	0ff00713          	li	a4,255
    189e:	004007b7          	lui	a5,0x400
    18a2:	00979513          	slli	a0,a5,0x9
    18a6:	50f2                	lw	ra,60(sp)
    18a8:	5462                	lw	s0,56(sp)
    18aa:	01771793          	slli	a5,a4,0x17
    18ae:	8125                	srli	a0,a0,0x9
    18b0:	097e                	slli	s2,s2,0x1f
    18b2:	8d5d                	or	a0,a0,a5
    18b4:	01256533          	or	a0,a0,s2
    18b8:	54d2                	lw	s1,52(sp)
    18ba:	5942                	lw	s2,48(sp)
    18bc:	59b2                	lw	s3,44(sp)
    18be:	5a22                	lw	s4,40(sp)
    18c0:	5a92                	lw	s5,36(sp)
    18c2:	5b02                	lw	s6,32(sp)
    18c4:	4bf2                	lw	s7,28(sp)
    18c6:	6121                	addi	sp,sp,64
    18c8:	8082                	ret
    18ca:	0ff00713          	li	a4,255
    18ce:	4781                	li	a5,0
    18d0:	bfc9                	j	18a2 <__divsf3+0xb8>
    18d2:	8aa6                	mv	s5,s1
    18d4:	8bce                	mv	s7,s3
    18d6:	8b36                	mv	s6,a3
    18d8:	4789                	li	a5,2
    18da:	1afb0963          	beq	s6,a5,1a8c <__divsf3+0x2a2>
    18de:	478d                	li	a5,3
    18e0:	fafb0ce3          	beq	s6,a5,1898 <__divsf3+0xae>
    18e4:	4785                	li	a5,1
    18e6:	0afb0863          	beq	s6,a5,1996 <__divsf3+0x1ac>
    18ea:	07fa0713          	addi	a4,s4,127
    18ee:	001bf913          	andi	s2,s7,1
    18f2:	12e05563          	blez	a4,1a1c <__divsf3+0x232>
    18f6:	007af793          	andi	a5,s5,7
    18fa:	c799                	beqz	a5,1908 <__divsf3+0x11e>
    18fc:	00faf793          	andi	a5,s5,15
    1900:	4691                	li	a3,4
    1902:	00d78363          	beq	a5,a3,1908 <__divsf3+0x11e>
    1906:	0a91                	addi	s5,s5,4
    1908:	004a9793          	slli	a5,s5,0x4
    190c:	0007d963          	bgez	a5,191e <__divsf3+0x134>
    1910:	f80007b7          	lui	a5,0xf8000
    1914:	17fd                	addi	a5,a5,-1
    1916:	00fafab3          	and	s5,s5,a5
    191a:	080a0713          	addi	a4,s4,128
    191e:	0fe00793          	li	a5,254
    1922:	fae7c4e3          	blt	a5,a4,18ca <__divsf3+0xe0>
    1926:	006a9793          	slli	a5,s5,0x6
    192a:	83a5                	srli	a5,a5,0x9
    192c:	0ff77713          	andi	a4,a4,255
    1930:	bf8d                	j	18a2 <__divsf3+0xb8>
    1932:	e4b1                	bnez	s1,197e <__divsf3+0x194>
    1934:	4685                	li	a3,1
    1936:	b7a9                	j	1880 <__divsf3+0x96>
    1938:	020a9463          	bnez	s5,1960 <__divsf3+0x176>
    193c:	4411                	li	s0,4
    193e:	4a01                	li	s4,0
    1940:	4b05                	li	s6,1
    1942:	bdc5                	j	1832 <__divsf3+0x48>
    1944:	000a9963          	bnez	s5,1956 <__divsf3+0x16c>
    1948:	4421                	li	s0,8
    194a:	0ff00a13          	li	s4,255
    194e:	4b09                	li	s6,2
    1950:	b5cd                	j	1832 <__divsf3+0x48>
    1952:	468d                	li	a3,3
    1954:	b731                	j	1860 <__divsf3+0x76>
    1956:	4431                	li	s0,12
    1958:	0ff00a13          	li	s4,255
    195c:	4b0d                	li	s6,3
    195e:	bdd1                	j	1832 <__divsf3+0x48>
    1960:	8556                	mv	a0,s5
    1962:	c62e                	sw	a1,12(sp)
    1964:	21e5                	jal	1e4c <__clzsi2>
    1966:	ffb50793          	addi	a5,a0,-5
    196a:	00fa9ab3          	sll	s5,s5,a5
    196e:	f8a00793          	li	a5,-118
    1972:	40a78a33          	sub	s4,a5,a0
    1976:	4401                	li	s0,0
    1978:	4b01                	li	s6,0
    197a:	45b2                	lw	a1,12(sp)
    197c:	bd5d                	j	1832 <__divsf3+0x48>
    197e:	8526                	mv	a0,s1
    1980:	21f1                	jal	1e4c <__clzsi2>
    1982:	ffb50713          	addi	a4,a0,-5
    1986:	00aa07b3          	add	a5,s4,a0
    198a:	00e494b3          	sll	s1,s1,a4
    198e:	07678a13          	addi	s4,a5,118 # f8000076 <_eusrstack+0xd7ffb076>
    1992:	4681                	li	a3,0
    1994:	b5f1                	j	1860 <__divsf3+0x76>
    1996:	001bf913          	andi	s2,s7,1
    199a:	4701                	li	a4,0
    199c:	4781                	li	a5,0
    199e:	b711                	j	18a2 <__divsf3+0xb8>
    19a0:	6641                	lui	a2,0x10
    19a2:	00549513          	slli	a0,s1,0x5
    19a6:	167d                	addi	a2,a2,-1
    19a8:	01055793          	srli	a5,a0,0x10
    19ac:	8e69                	and	a2,a2,a0
    19ae:	0a9afa63          	bgeu	s5,s1,1a62 <__divsf3+0x278>
    19b2:	02fad5b3          	divu	a1,s5,a5
    19b6:	1a7d                	addi	s4,s4,-1
    19b8:	86d6                	mv	a3,s5
    19ba:	4701                	li	a4,0
    19bc:	02c58833          	mul	a6,a1,a2
    19c0:	02f6f6b3          	remu	a3,a3,a5
    19c4:	06c2                	slli	a3,a3,0x10
    19c6:	8f55                	or	a4,a4,a3
    19c8:	01077b63          	bgeu	a4,a6,19de <__divsf3+0x1f4>
    19cc:	972a                	add	a4,a4,a0
    19ce:	fff58693          	addi	a3,a1,-1 # 4000ffff <_eusrstack+0x2000afff>
    19d2:	0aa76863          	bltu	a4,a0,1a82 <__divsf3+0x298>
    19d6:	0b077663          	bgeu	a4,a6,1a82 <__divsf3+0x298>
    19da:	15f9                	addi	a1,a1,-2
    19dc:	972a                	add	a4,a4,a0
    19de:	41070733          	sub	a4,a4,a6
    19e2:	02f756b3          	divu	a3,a4,a5
    19e6:	02f77733          	remu	a4,a4,a5
    19ea:	02c68ab3          	mul	s5,a3,a2
    19ee:	01071793          	slli	a5,a4,0x10
    19f2:	0157fb63          	bgeu	a5,s5,1a08 <__divsf3+0x21e>
    19f6:	97aa                	add	a5,a5,a0
    19f8:	fff68713          	addi	a4,a3,-1
    19fc:	08a7e163          	bltu	a5,a0,1a7e <__divsf3+0x294>
    1a00:	0757ff63          	bgeu	a5,s5,1a7e <__divsf3+0x294>
    1a04:	16f9                	addi	a3,a3,-2
    1a06:	97aa                	add	a5,a5,a0
    1a08:	05c2                	slli	a1,a1,0x10
    1a0a:	41578ab3          	sub	s5,a5,s5
    1a0e:	8dd5                	or	a1,a1,a3
    1a10:	01503ab3          	snez	s5,s5
    1a14:	0155eab3          	or	s5,a1,s5
    1a18:	8bca                	mv	s7,s2
    1a1a:	bdc1                	j	18ea <__divsf3+0x100>
    1a1c:	4685                	li	a3,1
    1a1e:	8e99                	sub	a3,a3,a4
    1a20:	c711                	beqz	a4,1a2c <__divsf3+0x242>
    1a22:	466d                	li	a2,27
    1a24:	4701                	li	a4,0
    1a26:	4781                	li	a5,0
    1a28:	e6d64de3          	blt	a2,a3,18a2 <__divsf3+0xb8>
    1a2c:	09ea0a13          	addi	s4,s4,158
    1a30:	014a9a33          	sll	s4,s5,s4
    1a34:	00dad7b3          	srl	a5,s5,a3
    1a38:	01403ab3          	snez	s5,s4
    1a3c:	0157e7b3          	or	a5,a5,s5
    1a40:	0077f713          	andi	a4,a5,7
    1a44:	c719                	beqz	a4,1a52 <__divsf3+0x268>
    1a46:	00f7f713          	andi	a4,a5,15
    1a4a:	4691                	li	a3,4
    1a4c:	00d70363          	beq	a4,a3,1a52 <__divsf3+0x268>
    1a50:	0791                	addi	a5,a5,4
    1a52:	00579713          	slli	a4,a5,0x5
    1a56:	02074863          	bltz	a4,1a86 <__divsf3+0x29c>
    1a5a:	079a                	slli	a5,a5,0x6
    1a5c:	83a5                	srli	a5,a5,0x9
    1a5e:	4701                	li	a4,0
    1a60:	b589                	j	18a2 <__divsf3+0xb8>
    1a62:	001ad693          	srli	a3,s5,0x1
    1a66:	02f6d5b3          	divu	a1,a3,a5
    1a6a:	01fa9713          	slli	a4,s5,0x1f
    1a6e:	8341                	srli	a4,a4,0x10
    1a70:	02c58833          	mul	a6,a1,a2
    1a74:	b7b1                	j	19c0 <__divsf3+0x1d6>
    1a76:	8bce                	mv	s7,s3
    1a78:	8b36                	mv	s6,a3
    1a7a:	4a81                	li	s5,0
    1a7c:	bdb1                	j	18d8 <__divsf3+0xee>
    1a7e:	86ba                	mv	a3,a4
    1a80:	b761                	j	1a08 <__divsf3+0x21e>
    1a82:	85b6                	mv	a1,a3
    1a84:	bfa9                	j	19de <__divsf3+0x1f4>
    1a86:	4705                	li	a4,1
    1a88:	4781                	li	a5,0
    1a8a:	bd21                	j	18a2 <__divsf3+0xb8>
    1a8c:	001bf913          	andi	s2,s7,1
    1a90:	0ff00713          	li	a4,255
    1a94:	4781                	li	a5,0
    1a96:	b531                	j	18a2 <__divsf3+0xb8>

00001a98 <__mulsf3>:
    1a98:	7179                	addi	sp,sp,-48
    1a9a:	d422                	sw	s0,40(sp)
    1a9c:	01755413          	srli	s0,a0,0x17
    1aa0:	ce4e                	sw	s3,28(sp)
    1aa2:	cc52                	sw	s4,24(sp)
    1aa4:	00951993          	slli	s3,a0,0x9
    1aa8:	d606                	sw	ra,44(sp)
    1aaa:	d226                	sw	s1,36(sp)
    1aac:	d04a                	sw	s2,32(sp)
    1aae:	ca56                	sw	s5,20(sp)
    1ab0:	c85a                	sw	s6,16(sp)
    1ab2:	0ff47413          	andi	s0,s0,255
    1ab6:	0099d993          	srli	s3,s3,0x9
    1aba:	01f55a13          	srli	s4,a0,0x1f
    1abe:	c469                	beqz	s0,1b88 <__mulsf3+0xf0>
    1ac0:	0ff00793          	li	a5,255
    1ac4:	0ef40863          	beq	s0,a5,1bb4 <__mulsf3+0x11c>
    1ac8:	00399793          	slli	a5,s3,0x3
    1acc:	04000737          	lui	a4,0x4000
    1ad0:	00e7e9b3          	or	s3,a5,a4
    1ad4:	f8140413          	addi	s0,s0,-127
    1ad8:	4481                	li	s1,0
    1ada:	4b01                	li	s6,0
    1adc:	0175d713          	srli	a4,a1,0x17
    1ae0:	00959a93          	slli	s5,a1,0x9
    1ae4:	0ff77713          	andi	a4,a4,255
    1ae8:	009ada93          	srli	s5,s5,0x9
    1aec:	01f5d913          	srli	s2,a1,0x1f
    1af0:	cf45                	beqz	a4,1ba8 <__mulsf3+0x110>
    1af2:	0ff00793          	li	a5,255
    1af6:	02f70c63          	beq	a4,a5,1b2e <__mulsf3+0x96>
    1afa:	0a8e                	slli	s5,s5,0x3
    1afc:	f8170713          	addi	a4,a4,-127 # 3ffff81 <_data_lma+0x3ffbe85>
    1b00:	040007b7          	lui	a5,0x4000
    1b04:	00faeab3          	or	s5,s5,a5
    1b08:	943a                	add	s0,s0,a4
    1b0a:	4601                	li	a2,0
    1b0c:	012a4533          	xor	a0,s4,s2
    1b10:	47bd                	li	a5,15
    1b12:	86aa                	mv	a3,a0
    1b14:	00140593          	addi	a1,s0,1
    1b18:	1097e063          	bltu	a5,s1,1c18 <__mulsf3+0x180>
    1b1c:	00002717          	auipc	a4,0x2
    1b20:	2f070713          	addi	a4,a4,752 # 3e0c <font8x8+0x480>
    1b24:	048a                	slli	s1,s1,0x2
    1b26:	94ba                	add	s1,s1,a4
    1b28:	409c                	lw	a5,0(s1)
    1b2a:	97ba                	add	a5,a5,a4
    1b2c:	8782                	jr	a5
    1b2e:	0ff40413          	addi	s0,s0,255
    1b32:	0c0a9663          	bnez	s5,1bfe <__mulsf3+0x166>
    1b36:	0024e493          	ori	s1,s1,2
    1b3a:	4609                	li	a2,2
    1b3c:	bfc1                	j	1b0c <__mulsf3+0x74>
    1b3e:	4501                	li	a0,0
    1b40:	0ff00713          	li	a4,255
    1b44:	004007b7          	lui	a5,0x400
    1b48:	50b2                	lw	ra,44(sp)
    1b4a:	5422                	lw	s0,40(sp)
    1b4c:	07a6                	slli	a5,a5,0x9
    1b4e:	075e                	slli	a4,a4,0x17
    1b50:	83a5                	srli	a5,a5,0x9
    1b52:	057e                	slli	a0,a0,0x1f
    1b54:	8fd9                	or	a5,a5,a4
    1b56:	5492                	lw	s1,36(sp)
    1b58:	5902                	lw	s2,32(sp)
    1b5a:	49f2                	lw	s3,28(sp)
    1b5c:	4a62                	lw	s4,24(sp)
    1b5e:	4ad2                	lw	s5,20(sp)
    1b60:	4b42                	lw	s6,16(sp)
    1b62:	8d5d                	or	a0,a0,a5
    1b64:	6145                	addi	sp,sp,48
    1b66:	8082                	ret
    1b68:	86ca                	mv	a3,s2
    1b6a:	89d6                	mv	s3,s5
    1b6c:	8b32                	mv	s6,a2
    1b6e:	4789                	li	a5,2
    1b70:	08fb0f63          	beq	s6,a5,1c0e <__mulsf3+0x176>
    1b74:	478d                	li	a5,3
    1b76:	fcfb04e3          	beq	s6,a5,1b3e <__mulsf3+0xa6>
    1b7a:	4785                	li	a5,1
    1b7c:	8536                	mv	a0,a3
    1b7e:	1afb1063          	bne	s6,a5,1d1e <__mulsf3+0x286>
    1b82:	4701                	li	a4,0
    1b84:	4781                	li	a5,0
    1b86:	b7c9                	j	1b48 <__mulsf3+0xb0>
    1b88:	04099d63          	bnez	s3,1be2 <__mulsf3+0x14a>
    1b8c:	0175d713          	srli	a4,a1,0x17
    1b90:	00959a93          	slli	s5,a1,0x9
    1b94:	0ff77713          	andi	a4,a4,255
    1b98:	4491                	li	s1,4
    1b9a:	4401                	li	s0,0
    1b9c:	4b05                	li	s6,1
    1b9e:	009ada93          	srli	s5,s5,0x9
    1ba2:	01f5d913          	srli	s2,a1,0x1f
    1ba6:	f731                	bnez	a4,1af2 <__mulsf3+0x5a>
    1ba8:	000a9d63          	bnez	s5,1bc2 <__mulsf3+0x12a>
    1bac:	0014e493          	ori	s1,s1,1
    1bb0:	4605                	li	a2,1
    1bb2:	bfa9                	j	1b0c <__mulsf3+0x74>
    1bb4:	02099263          	bnez	s3,1bd8 <__mulsf3+0x140>
    1bb8:	44a1                	li	s1,8
    1bba:	0ff00413          	li	s0,255
    1bbe:	4b09                	li	s6,2
    1bc0:	bf31                	j	1adc <__mulsf3+0x44>
    1bc2:	8556                	mv	a0,s5
    1bc4:	2461                	jal	1e4c <__clzsi2>
    1bc6:	ffb50793          	addi	a5,a0,-5
    1bca:	8c09                	sub	s0,s0,a0
    1bcc:	00fa9ab3          	sll	s5,s5,a5
    1bd0:	f8a40413          	addi	s0,s0,-118
    1bd4:	4601                	li	a2,0
    1bd6:	bf1d                	j	1b0c <__mulsf3+0x74>
    1bd8:	44b1                	li	s1,12
    1bda:	0ff00413          	li	s0,255
    1bde:	4b0d                	li	s6,3
    1be0:	bdf5                	j	1adc <__mulsf3+0x44>
    1be2:	854e                	mv	a0,s3
    1be4:	c62e                	sw	a1,12(sp)
    1be6:	249d                	jal	1e4c <__clzsi2>
    1be8:	ffb50793          	addi	a5,a0,-5
    1bec:	f8a00413          	li	s0,-118
    1bf0:	00f999b3          	sll	s3,s3,a5
    1bf4:	8c09                	sub	s0,s0,a0
    1bf6:	4481                	li	s1,0
    1bf8:	4b01                	li	s6,0
    1bfa:	45b2                	lw	a1,12(sp)
    1bfc:	b5c5                	j	1adc <__mulsf3+0x44>
    1bfe:	0034e493          	ori	s1,s1,3
    1c02:	460d                	li	a2,3
    1c04:	b721                	j	1b0c <__mulsf3+0x74>
    1c06:	4789                	li	a5,2
    1c08:	86d2                	mv	a3,s4
    1c0a:	f6fb15e3          	bne	s6,a5,1b74 <__mulsf3+0xdc>
    1c0e:	8536                	mv	a0,a3
    1c10:	0ff00713          	li	a4,255
    1c14:	4781                	li	a5,0
    1c16:	bf0d                	j	1b48 <__mulsf3+0xb0>
    1c18:	6341                	lui	t1,0x10
    1c1a:	fff30693          	addi	a3,t1,-1 # ffff <_data_lma+0xbf03>
    1c1e:	0109d613          	srli	a2,s3,0x10
    1c22:	010ad893          	srli	a7,s5,0x10
    1c26:	00d9f7b3          	and	a5,s3,a3
    1c2a:	00dafab3          	and	s5,s5,a3
    1c2e:	03578833          	mul	a6,a5,s5
    1c32:	02f889b3          	mul	s3,a7,a5
    1c36:	01085713          	srli	a4,a6,0x10
    1c3a:	03560ab3          	mul	s5,a2,s5
    1c3e:	99d6                	add	s3,s3,s5
    1c40:	974e                	add	a4,a4,s3
    1c42:	03160633          	mul	a2,a2,a7
    1c46:	01577363          	bgeu	a4,s5,1c4c <__mulsf3+0x1b4>
    1c4a:	961a                	add	a2,a2,t1
    1c4c:	67c1                	lui	a5,0x10
    1c4e:	17fd                	addi	a5,a5,-1
    1c50:	00f776b3          	and	a3,a4,a5
    1c54:	00f87833          	and	a6,a6,a5
    1c58:	06c2                	slli	a3,a3,0x10
    1c5a:	96c2                	add	a3,a3,a6
    1c5c:	00669993          	slli	s3,a3,0x6
    1c60:	01075793          	srli	a5,a4,0x10
    1c64:	013039b3          	snez	s3,s3
    1c68:	82e9                	srli	a3,a3,0x1a
    1c6a:	97b2                	add	a5,a5,a2
    1c6c:	079a                	slli	a5,a5,0x6
    1c6e:	00d9e6b3          	or	a3,s3,a3
    1c72:	00d7e9b3          	or	s3,a5,a3
    1c76:	00499793          	slli	a5,s3,0x4
    1c7a:	0007d963          	bgez	a5,1c8c <__mulsf3+0x1f4>
    1c7e:	0019d713          	srli	a4,s3,0x1
    1c82:	0019f793          	andi	a5,s3,1
    1c86:	00f769b3          	or	s3,a4,a5
    1c8a:	842e                	mv	s0,a1
    1c8c:	07f40713          	addi	a4,s0,127
    1c90:	04e05063          	blez	a4,1cd0 <__mulsf3+0x238>
    1c94:	0079f793          	andi	a5,s3,7
    1c98:	c799                	beqz	a5,1ca6 <__mulsf3+0x20e>
    1c9a:	00f9f793          	andi	a5,s3,15
    1c9e:	4691                	li	a3,4
    1ca0:	00d78363          	beq	a5,a3,1ca6 <__mulsf3+0x20e>
    1ca4:	0991                	addi	s3,s3,4
    1ca6:	00499793          	slli	a5,s3,0x4
    1caa:	0007d963          	bgez	a5,1cbc <__mulsf3+0x224>
    1cae:	f80007b7          	lui	a5,0xf8000
    1cb2:	17fd                	addi	a5,a5,-1
    1cb4:	00f9f9b3          	and	s3,s3,a5
    1cb8:	08040713          	addi	a4,s0,128
    1cbc:	0fe00793          	li	a5,254
    1cc0:	04e7cb63          	blt	a5,a4,1d16 <__mulsf3+0x27e>
    1cc4:	00699793          	slli	a5,s3,0x6
    1cc8:	83a5                	srli	a5,a5,0x9
    1cca:	0ff77713          	andi	a4,a4,255
    1cce:	bdad                	j	1b48 <__mulsf3+0xb0>
    1cd0:	4785                	li	a5,1
    1cd2:	40e786b3          	sub	a3,a5,a4
    1cd6:	c711                	beqz	a4,1ce2 <__mulsf3+0x24a>
    1cd8:	466d                	li	a2,27
    1cda:	4701                	li	a4,0
    1cdc:	4781                	li	a5,0
    1cde:	e6d645e3          	blt	a2,a3,1b48 <__mulsf3+0xb0>
    1ce2:	09e40713          	addi	a4,s0,158
    1ce6:	00e99733          	sll	a4,s3,a4
    1cea:	00e03733          	snez	a4,a4
    1cee:	00d9d7b3          	srl	a5,s3,a3
    1cf2:	8fd9                	or	a5,a5,a4
    1cf4:	0077f713          	andi	a4,a5,7
    1cf8:	c719                	beqz	a4,1d06 <__mulsf3+0x26e>
    1cfa:	00f7f713          	andi	a4,a5,15
    1cfe:	4691                	li	a3,4
    1d00:	00d70363          	beq	a4,a3,1d06 <__mulsf3+0x26e>
    1d04:	0791                	addi	a5,a5,4
    1d06:	00579713          	slli	a4,a5,0x5
    1d0a:	00074c63          	bltz	a4,1d22 <__mulsf3+0x28a>
    1d0e:	079a                	slli	a5,a5,0x6
    1d10:	83a5                	srli	a5,a5,0x9
    1d12:	4701                	li	a4,0
    1d14:	bd15                	j	1b48 <__mulsf3+0xb0>
    1d16:	0ff00713          	li	a4,255
    1d1a:	4781                	li	a5,0
    1d1c:	b535                	j	1b48 <__mulsf3+0xb0>
    1d1e:	842e                	mv	s0,a1
    1d20:	b7b5                	j	1c8c <__mulsf3+0x1f4>
    1d22:	4705                	li	a4,1
    1d24:	4781                	li	a5,0
    1d26:	b50d                	j	1b48 <__mulsf3+0xb0>

00001d28 <__fixunssfsi>:
    1d28:	01755713          	srli	a4,a0,0x17
    1d2c:	00800637          	lui	a2,0x800
    1d30:	fff60793          	addi	a5,a2,-1 # 7fffff <_data_lma+0x7fbf03>
    1d34:	0ff77713          	andi	a4,a4,255
    1d38:	07e00593          	li	a1,126
    1d3c:	00a7f6b3          	and	a3,a5,a0
    1d40:	01f55793          	srli	a5,a0,0x1f
    1d44:	4501                	li	a0,0
    1d46:	00e5f463          	bgeu	a1,a4,1d4e <__fixunssfsi+0x26>
    1d4a:	c399                	beqz	a5,1d50 <__fixunssfsi+0x28>
    1d4c:	8082                	ret
    1d4e:	8082                	ret
    1d50:	09e00793          	li	a5,158
    1d54:	557d                	li	a0,-1
    1d56:	fee7ebe3          	bltu	a5,a4,1d4c <__fixunssfsi+0x24>
    1d5a:	09500593          	li	a1,149
    1d5e:	00c6e7b3          	or	a5,a3,a2
    1d62:	00e5d763          	bge	a1,a4,1d70 <__fixunssfsi+0x48>
    1d66:	f6a70713          	addi	a4,a4,-150
    1d6a:	00e79533          	sll	a0,a5,a4
    1d6e:	8082                	ret
    1d70:	09600513          	li	a0,150
    1d74:	40e50733          	sub	a4,a0,a4
    1d78:	00e7d533          	srl	a0,a5,a4
    1d7c:	8082                	ret

00001d7e <__floatunsisf>:
    1d7e:	1141                	addi	sp,sp,-16
    1d80:	c606                	sw	ra,12(sp)
    1d82:	c422                	sw	s0,8(sp)
    1d84:	cd15                	beqz	a0,1dc0 <__floatunsisf+0x42>
    1d86:	842a                	mv	s0,a0
    1d88:	20d1                	jal	1e4c <__clzsi2>
    1d8a:	09e00793          	li	a5,158
    1d8e:	40a78733          	sub	a4,a5,a0
    1d92:	09600793          	li	a5,150
    1d96:	04e7c063          	blt	a5,a4,1dd6 <__floatunsisf+0x58>
    1d9a:	46a1                	li	a3,8
    1d9c:	0ff77793          	andi	a5,a4,255
    1da0:	00a6d563          	bge	a3,a0,1daa <__floatunsisf+0x2c>
    1da4:	1561                	addi	a0,a0,-8
    1da6:	00a41433          	sll	s0,s0,a0
    1daa:	0426                	slli	s0,s0,0x9
    1dac:	8025                	srli	s0,s0,0x9
    1dae:	0426                	slli	s0,s0,0x9
    1db0:	00945513          	srli	a0,s0,0x9
    1db4:	40b2                	lw	ra,12(sp)
    1db6:	4422                	lw	s0,8(sp)
    1db8:	07de                	slli	a5,a5,0x17
    1dba:	8d5d                	or	a0,a0,a5
    1dbc:	0141                	addi	sp,sp,16
    1dbe:	8082                	ret
    1dc0:	4401                	li	s0,0
    1dc2:	0426                	slli	s0,s0,0x9
    1dc4:	00945513          	srli	a0,s0,0x9
    1dc8:	40b2                	lw	ra,12(sp)
    1dca:	4422                	lw	s0,8(sp)
    1dcc:	4781                	li	a5,0
    1dce:	07de                	slli	a5,a5,0x17
    1dd0:	8d5d                	or	a0,a0,a5
    1dd2:	0141                	addi	sp,sp,16
    1dd4:	8082                	ret
    1dd6:	09900793          	li	a5,153
    1dda:	00e7dd63          	bge	a5,a4,1df4 <__floatunsisf+0x76>
    1dde:	01b50793          	addi	a5,a0,27
    1de2:	4695                	li	a3,5
    1de4:	00f417b3          	sll	a5,s0,a5
    1de8:	8e89                	sub	a3,a3,a0
    1dea:	00f037b3          	snez	a5,a5
    1dee:	00d45433          	srl	s0,s0,a3
    1df2:	8c5d                	or	s0,s0,a5
    1df4:	4795                	li	a5,5
    1df6:	00a7d663          	bge	a5,a0,1e02 <__floatunsisf+0x84>
    1dfa:	ffb50793          	addi	a5,a0,-5
    1dfe:	00f41433          	sll	s0,s0,a5
    1e02:	fc0006b7          	lui	a3,0xfc000
    1e06:	16fd                	addi	a3,a3,-1
    1e08:	00747793          	andi	a5,s0,7
    1e0c:	00d47633          	and	a2,s0,a3
    1e10:	c385                	beqz	a5,1e30 <__floatunsisf+0xb2>
    1e12:	00f47793          	andi	a5,s0,15
    1e16:	4591                	li	a1,4
    1e18:	00b78c63          	beq	a5,a1,1e30 <__floatunsisf+0xb2>
    1e1c:	0611                	addi	a2,a2,4
    1e1e:	00561793          	slli	a5,a2,0x5
    1e22:	0007d763          	bgez	a5,1e30 <__floatunsisf+0xb2>
    1e26:	09f00793          	li	a5,159
    1e2a:	8e75                	and	a2,a2,a3
    1e2c:	40a78733          	sub	a4,a5,a0
    1e30:	00661413          	slli	s0,a2,0x6
    1e34:	8025                	srli	s0,s0,0x9
    1e36:	0426                	slli	s0,s0,0x9
    1e38:	00945513          	srli	a0,s0,0x9
    1e3c:	40b2                	lw	ra,12(sp)
    1e3e:	4422                	lw	s0,8(sp)
    1e40:	0ff77793          	andi	a5,a4,255
    1e44:	07de                	slli	a5,a5,0x17
    1e46:	8d5d                	or	a0,a0,a5
    1e48:	0141                	addi	sp,sp,16
    1e4a:	8082                	ret

00001e4c <__clzsi2>:
    1e4c:	67c1                	lui	a5,0x10
    1e4e:	02f57c63          	bgeu	a0,a5,1e86 <__clzsi2+0x3a>
    1e52:	0ff00793          	li	a5,255
    1e56:	02000713          	li	a4,32
    1e5a:	00a7eb63          	bltu	a5,a0,1e70 <__clzsi2+0x24>
    1e5e:	00002797          	auipc	a5,0x2
    1e62:	fee78793          	addi	a5,a5,-18 # 3e4c <__clz_tab>
    1e66:	97aa                	add	a5,a5,a0
    1e68:	2388                	lbu	a0,0(a5)
    1e6a:	40a70533          	sub	a0,a4,a0
    1e6e:	8082                	ret
    1e70:	8121                	srli	a0,a0,0x8
    1e72:	00002797          	auipc	a5,0x2
    1e76:	fda78793          	addi	a5,a5,-38 # 3e4c <__clz_tab>
    1e7a:	97aa                	add	a5,a5,a0
    1e7c:	2388                	lbu	a0,0(a5)
    1e7e:	4761                	li	a4,24
    1e80:	40a70533          	sub	a0,a4,a0
    1e84:	8082                	ret
    1e86:	010007b7          	lui	a5,0x1000
    1e8a:	00f56d63          	bltu	a0,a5,1ea4 <__clzsi2+0x58>
    1e8e:	8161                	srli	a0,a0,0x18
    1e90:	00002797          	auipc	a5,0x2
    1e94:	fbc78793          	addi	a5,a5,-68 # 3e4c <__clz_tab>
    1e98:	97aa                	add	a5,a5,a0
    1e9a:	2388                	lbu	a0,0(a5)
    1e9c:	4721                	li	a4,8
    1e9e:	40a70533          	sub	a0,a4,a0
    1ea2:	8082                	ret
    1ea4:	8141                	srli	a0,a0,0x10
    1ea6:	00002797          	auipc	a5,0x2
    1eaa:	fa678793          	addi	a5,a5,-90 # 3e4c <__clz_tab>
    1eae:	97aa                	add	a5,a5,a0
    1eb0:	2388                	lbu	a0,0(a5)
    1eb2:	4741                	li	a4,16
    1eb4:	40a70533          	sub	a0,a4,a0
    1eb8:	8082                	ret

00001eba <atol>:
    1eba:	4629                	li	a2,10
    1ebc:	4581                	li	a1,0
    1ebe:	aef1                	j	229a <strtol>

00001ec0 <calloc>:
    1ec0:	84018793          	addi	a5,gp,-1984 # 20000258 <_impure_ptr>
    1ec4:	862e                	mv	a2,a1
    1ec6:	85aa                	mv	a1,a0
    1ec8:	4388                	lw	a0,0(a5)
    1eca:	a031                	j	1ed6 <_calloc_r>

00001ecc <free>:
    1ecc:	84018793          	addi	a5,gp,-1984 # 20000258 <_impure_ptr>
    1ed0:	85aa                	mv	a1,a0
    1ed2:	4388                	lw	a0,0(a5)
    1ed4:	a025                	j	1efc <_free_r>

00001ed6 <_calloc_r>:
    1ed6:	02c58633          	mul	a2,a1,a2
    1eda:	1101                	addi	sp,sp,-32
    1edc:	cc22                	sw	s0,24(sp)
    1ede:	ce06                	sw	ra,28(sp)
    1ee0:	85b2                	mv	a1,a2
    1ee2:	c632                	sw	a2,12(sp)
    1ee4:	2875                	jal	1fa0 <_malloc_r>
    1ee6:	842a                	mv	s0,a0
    1ee8:	c509                	beqz	a0,1ef2 <_calloc_r+0x1c>
    1eea:	4632                	lw	a2,12(sp)
    1eec:	4581                	li	a1,0
    1eee:	a72fe0ef          	jal	ra,160 <memset>
    1ef2:	8522                	mv	a0,s0
    1ef4:	40f2                	lw	ra,28(sp)
    1ef6:	4462                	lw	s0,24(sp)
    1ef8:	6105                	addi	sp,sp,32
    1efa:	8082                	ret

00001efc <_free_r>:
    1efc:	c1cd                	beqz	a1,1f9e <_free_r+0xa2>
    1efe:	ffc5a783          	lw	a5,-4(a1)
    1f02:	1141                	addi	sp,sp,-16
    1f04:	c422                	sw	s0,8(sp)
    1f06:	c606                	sw	ra,12(sp)
    1f08:	c226                	sw	s1,4(sp)
    1f0a:	ffc58413          	addi	s0,a1,-4
    1f0e:	0007d363          	bgez	a5,1f14 <_free_r+0x18>
    1f12:	943e                	add	s0,s0,a5
    1f14:	84aa                	mv	s1,a0
    1f16:	2bf5                	jal	2512 <__malloc_lock>
    1f18:	87418793          	addi	a5,gp,-1932 # 2000028c <__malloc_free_list>
    1f1c:	439c                	lw	a5,0(a5)
    1f1e:	eb99                	bnez	a5,1f34 <_free_r+0x38>
    1f20:	00042223          	sw	zero,4(s0)
    1f24:	8681aa23          	sw	s0,-1932(gp) # 2000028c <__malloc_free_list>
    1f28:	4422                	lw	s0,8(sp)
    1f2a:	40b2                	lw	ra,12(sp)
    1f2c:	8526                	mv	a0,s1
    1f2e:	4492                	lw	s1,4(sp)
    1f30:	0141                	addi	sp,sp,16
    1f32:	a3cd                	j	2514 <__malloc_unlock>
    1f34:	00f47e63          	bgeu	s0,a5,1f50 <_free_r+0x54>
    1f38:	4014                	lw	a3,0(s0)
    1f3a:	00d40733          	add	a4,s0,a3
    1f3e:	00e79663          	bne	a5,a4,1f4a <_free_r+0x4e>
    1f42:	4398                	lw	a4,0(a5)
    1f44:	43dc                	lw	a5,4(a5)
    1f46:	9736                	add	a4,a4,a3
    1f48:	c018                	sw	a4,0(s0)
    1f4a:	c05c                	sw	a5,4(s0)
    1f4c:	bfe1                	j	1f24 <_free_r+0x28>
    1f4e:	87ba                	mv	a5,a4
    1f50:	43d8                	lw	a4,4(a5)
    1f52:	c319                	beqz	a4,1f58 <_free_r+0x5c>
    1f54:	fee47de3          	bgeu	s0,a4,1f4e <_free_r+0x52>
    1f58:	4394                	lw	a3,0(a5)
    1f5a:	00d78633          	add	a2,a5,a3
    1f5e:	00861f63          	bne	a2,s0,1f7c <_free_r+0x80>
    1f62:	4010                	lw	a2,0(s0)
    1f64:	96b2                	add	a3,a3,a2
    1f66:	c394                	sw	a3,0(a5)
    1f68:	00d78633          	add	a2,a5,a3
    1f6c:	fac71ee3          	bne	a4,a2,1f28 <_free_r+0x2c>
    1f70:	4310                	lw	a2,0(a4)
    1f72:	4358                	lw	a4,4(a4)
    1f74:	96b2                	add	a3,a3,a2
    1f76:	c394                	sw	a3,0(a5)
    1f78:	c3d8                	sw	a4,4(a5)
    1f7a:	b77d                	j	1f28 <_free_r+0x2c>
    1f7c:	00c47563          	bgeu	s0,a2,1f86 <_free_r+0x8a>
    1f80:	47b1                	li	a5,12
    1f82:	c09c                	sw	a5,0(s1)
    1f84:	b755                	j	1f28 <_free_r+0x2c>
    1f86:	4010                	lw	a2,0(s0)
    1f88:	00c406b3          	add	a3,s0,a2
    1f8c:	00d71663          	bne	a4,a3,1f98 <_free_r+0x9c>
    1f90:	4314                	lw	a3,0(a4)
    1f92:	4358                	lw	a4,4(a4)
    1f94:	96b2                	add	a3,a3,a2
    1f96:	c014                	sw	a3,0(s0)
    1f98:	c058                	sw	a4,4(s0)
    1f9a:	c3c0                	sw	s0,4(a5)
    1f9c:	b771                	j	1f28 <_free_r+0x2c>
    1f9e:	8082                	ret

00001fa0 <_malloc_r>:
    1fa0:	1101                	addi	sp,sp,-32
    1fa2:	ca26                	sw	s1,20(sp)
    1fa4:	00358493          	addi	s1,a1,3
    1fa8:	98f1                	andi	s1,s1,-4
    1faa:	ce06                	sw	ra,28(sp)
    1fac:	cc22                	sw	s0,24(sp)
    1fae:	c84a                	sw	s2,16(sp)
    1fb0:	c64e                	sw	s3,12(sp)
    1fb2:	04a1                	addi	s1,s1,8
    1fb4:	47b1                	li	a5,12
    1fb6:	04f4f163          	bgeu	s1,a5,1ff8 <_malloc_r+0x58>
    1fba:	44b1                	li	s1,12
    1fbc:	04b4e063          	bltu	s1,a1,1ffc <_malloc_r+0x5c>
    1fc0:	892a                	mv	s2,a0
    1fc2:	2b81                	jal	2512 <__malloc_lock>
    1fc4:	87418793          	addi	a5,gp,-1932 # 2000028c <__malloc_free_list>
    1fc8:	4398                	lw	a4,0(a5)
    1fca:	843a                	mv	s0,a4
    1fcc:	e031                	bnez	s0,2010 <_malloc_r+0x70>
    1fce:	87818793          	addi	a5,gp,-1928 # 20000290 <__malloc_sbrk_start>
    1fd2:	439c                	lw	a5,0(a5)
    1fd4:	e791                	bnez	a5,1fe0 <_malloc_r+0x40>
    1fd6:	4581                	li	a1,0
    1fd8:	854a                	mv	a0,s2
    1fda:	28d1                	jal	20ae <_sbrk_r>
    1fdc:	86a1ac23          	sw	a0,-1928(gp) # 20000290 <__malloc_sbrk_start>
    1fe0:	85a6                	mv	a1,s1
    1fe2:	854a                	mv	a0,s2
    1fe4:	20e9                	jal	20ae <_sbrk_r>
    1fe6:	59fd                	li	s3,-1
    1fe8:	07351763          	bne	a0,s3,2056 <_malloc_r+0xb6>
    1fec:	47b1                	li	a5,12
    1fee:	00f92023          	sw	a5,0(s2)
    1ff2:	854a                	mv	a0,s2
    1ff4:	2305                	jal	2514 <__malloc_unlock>
    1ff6:	a029                	j	2000 <_malloc_r+0x60>
    1ff8:	fc04d2e3          	bgez	s1,1fbc <_malloc_r+0x1c>
    1ffc:	47b1                	li	a5,12
    1ffe:	c11c                	sw	a5,0(a0)
    2000:	4501                	li	a0,0
    2002:	40f2                	lw	ra,28(sp)
    2004:	4462                	lw	s0,24(sp)
    2006:	44d2                	lw	s1,20(sp)
    2008:	4942                	lw	s2,16(sp)
    200a:	49b2                	lw	s3,12(sp)
    200c:	6105                	addi	sp,sp,32
    200e:	8082                	ret
    2010:	401c                	lw	a5,0(s0)
    2012:	8f85                	sub	a5,a5,s1
    2014:	0207ce63          	bltz	a5,2050 <_malloc_r+0xb0>
    2018:	46ad                	li	a3,11
    201a:	00f6f663          	bgeu	a3,a5,2026 <_malloc_r+0x86>
    201e:	c01c                	sw	a5,0(s0)
    2020:	943e                	add	s0,s0,a5
    2022:	c004                	sw	s1,0(s0)
    2024:	a031                	j	2030 <_malloc_r+0x90>
    2026:	405c                	lw	a5,4(s0)
    2028:	02871263          	bne	a4,s0,204c <_malloc_r+0xac>
    202c:	86f1aa23          	sw	a5,-1932(gp) # 2000028c <__malloc_free_list>
    2030:	854a                	mv	a0,s2
    2032:	21cd                	jal	2514 <__malloc_unlock>
    2034:	00b40513          	addi	a0,s0,11
    2038:	00440793          	addi	a5,s0,4
    203c:	9961                	andi	a0,a0,-8
    203e:	40f50733          	sub	a4,a0,a5
    2042:	d361                	beqz	a4,2002 <_malloc_r+0x62>
    2044:	943a                	add	s0,s0,a4
    2046:	8f89                	sub	a5,a5,a0
    2048:	c01c                	sw	a5,0(s0)
    204a:	bf65                	j	2002 <_malloc_r+0x62>
    204c:	c35c                	sw	a5,4(a4)
    204e:	b7cd                	j	2030 <_malloc_r+0x90>
    2050:	8722                	mv	a4,s0
    2052:	4040                	lw	s0,4(s0)
    2054:	bfa5                	j	1fcc <_malloc_r+0x2c>
    2056:	00350413          	addi	s0,a0,3
    205a:	9871                	andi	s0,s0,-4
    205c:	fc8503e3          	beq	a0,s0,2022 <_malloc_r+0x82>
    2060:	40a405b3          	sub	a1,s0,a0
    2064:	854a                	mv	a0,s2
    2066:	20a1                	jal	20ae <_sbrk_r>
    2068:	fb351de3          	bne	a0,s3,2022 <_malloc_r+0x82>
    206c:	b741                	j	1fec <_malloc_r+0x4c>

0000206e <iprintf>:
    206e:	7139                	addi	sp,sp,-64
    2070:	da3e                	sw	a5,52(sp)
    2072:	d22e                	sw	a1,36(sp)
    2074:	d432                	sw	a2,40(sp)
    2076:	d636                	sw	a3,44(sp)
    2078:	d83a                	sw	a4,48(sp)
    207a:	dc42                	sw	a6,56(sp)
    207c:	de46                	sw	a7,60(sp)
    207e:	84018793          	addi	a5,gp,-1984 # 20000258 <_impure_ptr>
    2082:	cc22                	sw	s0,24(sp)
    2084:	4380                	lw	s0,0(a5)
    2086:	ca26                	sw	s1,20(sp)
    2088:	ce06                	sw	ra,28(sp)
    208a:	84aa                	mv	s1,a0
    208c:	c409                	beqz	s0,2096 <iprintf+0x28>
    208e:	4c1c                	lw	a5,24(s0)
    2090:	e399                	bnez	a5,2096 <iprintf+0x28>
    2092:	8522                	mv	a0,s0
    2094:	2ce9                	jal	236e <__sinit>
    2096:	440c                	lw	a1,8(s0)
    2098:	1054                	addi	a3,sp,36
    209a:	8626                	mv	a2,s1
    209c:	8522                	mv	a0,s0
    209e:	c636                	sw	a3,12(sp)
    20a0:	029000ef          	jal	ra,28c8 <_vfiprintf_r>
    20a4:	40f2                	lw	ra,28(sp)
    20a6:	4462                	lw	s0,24(sp)
    20a8:	44d2                	lw	s1,20(sp)
    20aa:	6121                	addi	sp,sp,64
    20ac:	8082                	ret

000020ae <_sbrk_r>:
    20ae:	1141                	addi	sp,sp,-16
    20b0:	c422                	sw	s0,8(sp)
    20b2:	842a                	mv	s0,a0
    20b4:	852e                	mv	a0,a1
    20b6:	8e01ae23          	sw	zero,-1796(gp) # 20000314 <errno>
    20ba:	c606                	sw	ra,12(sp)
    20bc:	f08ff0ef          	jal	ra,17c4 <_sbrk>
    20c0:	57fd                	li	a5,-1
    20c2:	00f51763          	bne	a0,a5,20d0 <_sbrk_r+0x22>
    20c6:	8fc18793          	addi	a5,gp,-1796 # 20000314 <errno>
    20ca:	439c                	lw	a5,0(a5)
    20cc:	c391                	beqz	a5,20d0 <_sbrk_r+0x22>
    20ce:	c01c                	sw	a5,0(s0)
    20d0:	40b2                	lw	ra,12(sp)
    20d2:	4422                	lw	s0,8(sp)
    20d4:	0141                	addi	sp,sp,16
    20d6:	8082                	ret

000020d8 <siprintf>:
    20d8:	7135                	addi	sp,sp,-160
    20da:	cb3e                	sw	a5,148(sp)
    20dc:	800007b7          	lui	a5,0x80000
    20e0:	fff7c793          	not	a5,a5
    20e4:	ce3e                	sw	a5,28(sp)
    20e6:	c83e                	sw	a5,16(sp)
    20e8:	77c1                	lui	a5,0xffff0
    20ea:	20878793          	addi	a5,a5,520 # ffff0208 <_eusrstack+0xdffeb208>
    20ee:	c532                	sw	a2,136(sp)
    20f0:	c736                	sw	a3,140(sp)
    20f2:	c93a                	sw	a4,144(sp)
    20f4:	cd42                	sw	a6,152(sp)
    20f6:	cf46                	sw	a7,156(sp)
    20f8:	ca3e                	sw	a5,20(sp)
    20fa:	84018793          	addi	a5,gp,-1984 # 20000258 <_impure_ptr>
    20fe:	c42a                	sw	a0,8(sp)
    2100:	cc2a                	sw	a0,24(sp)
    2102:	4388                	lw	a0,0(a5)
    2104:	0134                	addi	a3,sp,136
    2106:	862e                	mv	a2,a1
    2108:	002c                	addi	a1,sp,8
    210a:	de86                	sw	ra,124(sp)
    210c:	c236                	sw	a3,4(sp)
    210e:	21f5                	jal	25fa <_svfiprintf_r>
    2110:	47a2                	lw	a5,8(sp)
    2112:	00078023          	sb	zero,0(a5)
    2116:	50f6                	lw	ra,124(sp)
    2118:	610d                	addi	sp,sp,160
    211a:	8082                	ret

0000211c <strlen>:
    211c:	87aa                	mv	a5,a0
    211e:	0785                	addi	a5,a5,1
    2120:	fff7c703          	lbu	a4,-1(a5)
    2124:	ff6d                	bnez	a4,211e <strlen+0x2>
    2126:	40a78533          	sub	a0,a5,a0
    212a:	157d                	addi	a0,a0,-1
    212c:	8082                	ret

0000212e <strstr>:
    212e:	2118                	lbu	a4,0(a0)
    2130:	219c                	lbu	a5,0(a1)
    2132:	e701                	bnez	a4,213a <strstr+0xc>
    2134:	c391                	beqz	a5,2138 <strstr+0xa>
    2136:	4501                	li	a0,0
    2138:	8082                	ret
    213a:	4781                	li	a5,0
    213c:	a039                	j	214a <strstr+0x1c>
    213e:	311c                	lbu	a5,1(a0)
    2140:	00150713          	addi	a4,a0,1
    2144:	dbed                	beqz	a5,2136 <strstr+0x8>
    2146:	4781                	li	a5,0
    2148:	853a                	mv	a0,a4
    214a:	00f58733          	add	a4,a1,a5
    214e:	2318                	lbu	a4,0(a4)
    2150:	d765                	beqz	a4,2138 <strstr+0xa>
    2152:	00f506b3          	add	a3,a0,a5
    2156:	2294                	lbu	a3,0(a3)
    2158:	fee693e3          	bne	a3,a4,213e <strstr+0x10>
    215c:	0785                	addi	a5,a5,1
    215e:	872a                	mv	a4,a0
    2160:	b7e5                	j	2148 <strstr+0x1a>

00002162 <_strtol_l.isra.0>:
    2162:	7179                	addi	sp,sp,-48
    2164:	d04a                	sw	s2,32(sp)
    2166:	ce4e                	sw	s3,28(sp)
    2168:	d606                	sw	ra,44(sp)
    216a:	d422                	sw	s0,40(sp)
    216c:	d226                	sw	s1,36(sp)
    216e:	89aa                	mv	s3,a0
    2170:	892e                	mv	s2,a1
    2172:	00190493          	addi	s1,s2,1
    2176:	fff4c403          	lbu	s0,-1(s1)
    217a:	853a                	mv	a0,a4
    217c:	c636                	sw	a3,12(sp)
    217e:	c432                	sw	a2,8(sp)
    2180:	c22e                	sw	a1,4(sp)
    2182:	c03a                	sw	a4,0(sp)
    2184:	2e99                	jal	24da <__locale_ctype_ptr_l>
    2186:	9522                	add	a0,a0,s0
    2188:	311c                	lbu	a5,1(a0)
    218a:	4702                	lw	a4,0(sp)
    218c:	4592                	lw	a1,4(sp)
    218e:	8ba1                	andi	a5,a5,8
    2190:	4622                	lw	a2,8(sp)
    2192:	46b2                	lw	a3,12(sp)
    2194:	e3d1                	bnez	a5,2218 <_strtol_l.isra.0+0xb6>
    2196:	02d00793          	li	a5,45
    219a:	08f41163          	bne	s0,a5,221c <_strtol_l.isra.0+0xba>
    219e:	209c                	lbu	a5,0(s1)
    21a0:	4305                	li	t1,1
    21a2:	00290493          	addi	s1,s2,2
    21a6:	c6e5                	beqz	a3,228e <_strtol_l.isra.0+0x12c>
    21a8:	4741                	li	a4,16
    21aa:	02e69063          	bne	a3,a4,21ca <_strtol_l.isra.0+0x68>
    21ae:	03000713          	li	a4,48
    21b2:	00e79c63          	bne	a5,a4,21ca <_strtol_l.isra.0+0x68>
    21b6:	209c                	lbu	a5,0(s1)
    21b8:	05800713          	li	a4,88
    21bc:	0df7f793          	andi	a5,a5,223
    21c0:	0ce79263          	bne	a5,a4,2284 <_strtol_l.isra.0+0x122>
    21c4:	309c                	lbu	a5,1(s1)
    21c6:	46c1                	li	a3,16
    21c8:	0489                	addi	s1,s1,2
    21ca:	800008b7          	lui	a7,0x80000
    21ce:	00031463          	bnez	t1,21d6 <_strtol_l.isra.0+0x74>
    21d2:	fff8c893          	not	a7,a7
    21d6:	02d8ff33          	remu	t5,a7,a3
    21da:	4801                	li	a6,0
    21dc:	4501                	li	a0,0
    21de:	4fa5                	li	t6,9
    21e0:	4ee5                	li	t4,25
    21e2:	52fd                	li	t0,-1
    21e4:	02d8de33          	divu	t3,a7,a3
    21e8:	fd078713          	addi	a4,a5,-48
    21ec:	04efe363          	bltu	t6,a4,2232 <_strtol_l.isra.0+0xd0>
    21f0:	87ba                	mv	a5,a4
    21f2:	04d7de63          	bge	a5,a3,224e <_strtol_l.isra.0+0xec>
    21f6:	00580d63          	beq	a6,t0,2210 <_strtol_l.isra.0+0xae>
    21fa:	587d                	li	a6,-1
    21fc:	00ae6a63          	bltu	t3,a0,2210 <_strtol_l.isra.0+0xae>
    2200:	00ae1463          	bne	t3,a0,2208 <_strtol_l.isra.0+0xa6>
    2204:	00ff4663          	blt	t5,a5,2210 <_strtol_l.isra.0+0xae>
    2208:	4805                	li	a6,1
    220a:	02a68533          	mul	a0,a3,a0
    220e:	953e                	add	a0,a0,a5
    2210:	0485                	addi	s1,s1,1
    2212:	fff4c783          	lbu	a5,-1(s1)
    2216:	bfc9                	j	21e8 <_strtol_l.isra.0+0x86>
    2218:	8926                	mv	s2,s1
    221a:	bfa1                	j	2172 <_strtol_l.isra.0+0x10>
    221c:	02b00793          	li	a5,43
    2220:	00f40563          	beq	s0,a5,222a <_strtol_l.isra.0+0xc8>
    2224:	87a2                	mv	a5,s0
    2226:	4301                	li	t1,0
    2228:	bfbd                	j	21a6 <_strtol_l.isra.0+0x44>
    222a:	209c                	lbu	a5,0(s1)
    222c:	00290493          	addi	s1,s2,2
    2230:	bfdd                	j	2226 <_strtol_l.isra.0+0xc4>
    2232:	fbf78713          	addi	a4,a5,-65
    2236:	00eee563          	bltu	t4,a4,2240 <_strtol_l.isra.0+0xde>
    223a:	fc978793          	addi	a5,a5,-55
    223e:	bf55                	j	21f2 <_strtol_l.isra.0+0x90>
    2240:	f9f78713          	addi	a4,a5,-97
    2244:	00eee563          	bltu	t4,a4,224e <_strtol_l.isra.0+0xec>
    2248:	fa978793          	addi	a5,a5,-87
    224c:	b75d                	j	21f2 <_strtol_l.isra.0+0x90>
    224e:	57fd                	li	a5,-1
    2250:	00f81f63          	bne	a6,a5,226e <_strtol_l.isra.0+0x10c>
    2254:	02200793          	li	a5,34
    2258:	00f9a023          	sw	a5,0(s3)
    225c:	8546                	mv	a0,a7
    225e:	ee19                	bnez	a2,227c <_strtol_l.isra.0+0x11a>
    2260:	50b2                	lw	ra,44(sp)
    2262:	5422                	lw	s0,40(sp)
    2264:	5492                	lw	s1,36(sp)
    2266:	5902                	lw	s2,32(sp)
    2268:	49f2                	lw	s3,28(sp)
    226a:	6145                	addi	sp,sp,48
    226c:	8082                	ret
    226e:	00030463          	beqz	t1,2276 <_strtol_l.isra.0+0x114>
    2272:	40a00533          	neg	a0,a0
    2276:	d66d                	beqz	a2,2260 <_strtol_l.isra.0+0xfe>
    2278:	00080463          	beqz	a6,2280 <_strtol_l.isra.0+0x11e>
    227c:	fff48593          	addi	a1,s1,-1
    2280:	c20c                	sw	a1,0(a2)
    2282:	bff9                	j	2260 <_strtol_l.isra.0+0xfe>
    2284:	03000793          	li	a5,48
    2288:	f2a9                	bnez	a3,21ca <_strtol_l.isra.0+0x68>
    228a:	46a1                	li	a3,8
    228c:	bf3d                	j	21ca <_strtol_l.isra.0+0x68>
    228e:	03000713          	li	a4,48
    2292:	f2e782e3          	beq	a5,a4,21b6 <_strtol_l.isra.0+0x54>
    2296:	46a9                	li	a3,10
    2298:	bf0d                	j	21ca <_strtol_l.isra.0+0x68>

0000229a <strtol>:
    229a:	84018793          	addi	a5,gp,-1984 # 20000258 <_impure_ptr>
    229e:	439c                	lw	a5,0(a5)
    22a0:	86b2                	mv	a3,a2
    22a2:	5398                	lw	a4,32(a5)
    22a4:	e709                	bnez	a4,22ae <strtol+0x14>
    22a6:	1fffe717          	auipc	a4,0x1fffe
    22aa:	e0270713          	addi	a4,a4,-510 # 200000a8 <__global_locale>
    22ae:	862e                	mv	a2,a1
    22b0:	85aa                	mv	a1,a0
    22b2:	853e                	mv	a0,a5
    22b4:	b57d                	j	2162 <_strtol_l.isra.0>

000022b6 <std>:
    22b6:	1141                	addi	sp,sp,-16
    22b8:	c422                	sw	s0,8(sp)
    22ba:	c606                	sw	ra,12(sp)
    22bc:	842a                	mv	s0,a0
    22be:	a54e                	sh	a1,12(a0)
    22c0:	a572                	sh	a2,14(a0)
    22c2:	00052023          	sw	zero,0(a0)
    22c6:	00052223          	sw	zero,4(a0)
    22ca:	00052423          	sw	zero,8(a0)
    22ce:	06052223          	sw	zero,100(a0)
    22d2:	00052823          	sw	zero,16(a0)
    22d6:	00052a23          	sw	zero,20(a0)
    22da:	00052c23          	sw	zero,24(a0)
    22de:	4621                	li	a2,8
    22e0:	4581                	li	a1,0
    22e2:	05c50513          	addi	a0,a0,92
    22e6:	e7bfd0ef          	jal	ra,160 <memset>
    22ea:	00001797          	auipc	a5,0x1
    22ee:	c1678793          	addi	a5,a5,-1002 # 2f00 <__sread>
    22f2:	d05c                	sw	a5,36(s0)
    22f4:	00001797          	auipc	a5,0x1
    22f8:	c3878793          	addi	a5,a5,-968 # 2f2c <__swrite>
    22fc:	d41c                	sw	a5,40(s0)
    22fe:	00001797          	auipc	a5,0x1
    2302:	c7678793          	addi	a5,a5,-906 # 2f74 <__sseek>
    2306:	d45c                	sw	a5,44(s0)
    2308:	00001797          	auipc	a5,0x1
    230c:	c9c78793          	addi	a5,a5,-868 # 2fa4 <__sclose>
    2310:	d000                	sw	s0,32(s0)
    2312:	d81c                	sw	a5,48(s0)
    2314:	40b2                	lw	ra,12(sp)
    2316:	4422                	lw	s0,8(sp)
    2318:	0141                	addi	sp,sp,16
    231a:	8082                	ret

0000231c <_cleanup_r>:
    231c:	00001597          	auipc	a1,0x1
    2320:	ff258593          	addi	a1,a1,-14 # 330e <_fflush_r>
    2324:	a2b1                	j	2470 <_fwalk_reent>

00002326 <__sfmoreglue>:
    2326:	1141                	addi	sp,sp,-16
    2328:	c226                	sw	s1,4(sp)
    232a:	06800613          	li	a2,104
    232e:	fff58493          	addi	s1,a1,-1
    2332:	02c484b3          	mul	s1,s1,a2
    2336:	c04a                	sw	s2,0(sp)
    2338:	892e                	mv	s2,a1
    233a:	c422                	sw	s0,8(sp)
    233c:	c606                	sw	ra,12(sp)
    233e:	07448593          	addi	a1,s1,116
    2342:	c5fff0ef          	jal	ra,1fa0 <_malloc_r>
    2346:	842a                	mv	s0,a0
    2348:	cd01                	beqz	a0,2360 <__sfmoreglue+0x3a>
    234a:	00052023          	sw	zero,0(a0)
    234e:	01252223          	sw	s2,4(a0)
    2352:	0531                	addi	a0,a0,12
    2354:	c408                	sw	a0,8(s0)
    2356:	06848613          	addi	a2,s1,104
    235a:	4581                	li	a1,0
    235c:	e05fd0ef          	jal	ra,160 <memset>
    2360:	8522                	mv	a0,s0
    2362:	40b2                	lw	ra,12(sp)
    2364:	4422                	lw	s0,8(sp)
    2366:	4492                	lw	s1,4(sp)
    2368:	4902                	lw	s2,0(sp)
    236a:	0141                	addi	sp,sp,16
    236c:	8082                	ret

0000236e <__sinit>:
    236e:	4d1c                	lw	a5,24(a0)
    2370:	e3ad                	bnez	a5,23d2 <__sinit+0x64>
    2372:	1141                	addi	sp,sp,-16
    2374:	c606                	sw	ra,12(sp)
    2376:	c422                	sw	s0,8(sp)
    2378:	00000797          	auipc	a5,0x0
    237c:	fa478793          	addi	a5,a5,-92 # 231c <_cleanup_r>
    2380:	d51c                	sw	a5,40(a0)
    2382:	84418793          	addi	a5,gp,-1980 # 2000025c <_global_impure_ptr>
    2386:	439c                	lw	a5,0(a5)
    2388:	04052423          	sw	zero,72(a0)
    238c:	04052623          	sw	zero,76(a0)
    2390:	04052823          	sw	zero,80(a0)
    2394:	00f51463          	bne	a0,a5,239c <__sinit+0x2e>
    2398:	4785                	li	a5,1
    239a:	cd1c                	sw	a5,24(a0)
    239c:	842a                	mv	s0,a0
    239e:	281d                	jal	23d4 <__sfp>
    23a0:	c048                	sw	a0,4(s0)
    23a2:	8522                	mv	a0,s0
    23a4:	2805                	jal	23d4 <__sfp>
    23a6:	c408                	sw	a0,8(s0)
    23a8:	8522                	mv	a0,s0
    23aa:	202d                	jal	23d4 <__sfp>
    23ac:	c448                	sw	a0,12(s0)
    23ae:	4048                	lw	a0,4(s0)
    23b0:	4601                	li	a2,0
    23b2:	4591                	li	a1,4
    23b4:	3709                	jal	22b6 <std>
    23b6:	4408                	lw	a0,8(s0)
    23b8:	4605                	li	a2,1
    23ba:	45a5                	li	a1,9
    23bc:	3ded                	jal	22b6 <std>
    23be:	4448                	lw	a0,12(s0)
    23c0:	4609                	li	a2,2
    23c2:	45c9                	li	a1,18
    23c4:	3dcd                	jal	22b6 <std>
    23c6:	4785                	li	a5,1
    23c8:	cc1c                	sw	a5,24(s0)
    23ca:	40b2                	lw	ra,12(sp)
    23cc:	4422                	lw	s0,8(sp)
    23ce:	0141                	addi	sp,sp,16
    23d0:	8082                	ret
    23d2:	8082                	ret

000023d4 <__sfp>:
    23d4:	1141                	addi	sp,sp,-16
    23d6:	84418793          	addi	a5,gp,-1980 # 2000025c <_global_impure_ptr>
    23da:	c226                	sw	s1,4(sp)
    23dc:	4384                	lw	s1,0(a5)
    23de:	c04a                	sw	s2,0(sp)
    23e0:	c606                	sw	ra,12(sp)
    23e2:	4c9c                	lw	a5,24(s1)
    23e4:	c422                	sw	s0,8(sp)
    23e6:	892a                	mv	s2,a0
    23e8:	e399                	bnez	a5,23ee <__sfp+0x1a>
    23ea:	8526                	mv	a0,s1
    23ec:	3749                	jal	236e <__sinit>
    23ee:	04848493          	addi	s1,s1,72
    23f2:	4480                	lw	s0,8(s1)
    23f4:	40dc                	lw	a5,4(s1)
    23f6:	17fd                	addi	a5,a5,-1
    23f8:	0007d663          	bgez	a5,2404 <__sfp+0x30>
    23fc:	409c                	lw	a5,0(s1)
    23fe:	cfb9                	beqz	a5,245c <__sfp+0x88>
    2400:	4084                	lw	s1,0(s1)
    2402:	bfc5                	j	23f2 <__sfp+0x1e>
    2404:	00c41703          	lh	a4,12(s0)
    2408:	e739                	bnez	a4,2456 <__sfp+0x82>
    240a:	77c1                	lui	a5,0xffff0
    240c:	0785                	addi	a5,a5,1
    240e:	06042223          	sw	zero,100(s0)
    2412:	00042023          	sw	zero,0(s0)
    2416:	00042223          	sw	zero,4(s0)
    241a:	00042423          	sw	zero,8(s0)
    241e:	c45c                	sw	a5,12(s0)
    2420:	00042823          	sw	zero,16(s0)
    2424:	00042a23          	sw	zero,20(s0)
    2428:	00042c23          	sw	zero,24(s0)
    242c:	4621                	li	a2,8
    242e:	4581                	li	a1,0
    2430:	05c40513          	addi	a0,s0,92
    2434:	d2dfd0ef          	jal	ra,160 <memset>
    2438:	02042a23          	sw	zero,52(s0)
    243c:	02042c23          	sw	zero,56(s0)
    2440:	04042423          	sw	zero,72(s0)
    2444:	04042623          	sw	zero,76(s0)
    2448:	8522                	mv	a0,s0
    244a:	40b2                	lw	ra,12(sp)
    244c:	4422                	lw	s0,8(sp)
    244e:	4492                	lw	s1,4(sp)
    2450:	4902                	lw	s2,0(sp)
    2452:	0141                	addi	sp,sp,16
    2454:	8082                	ret
    2456:	06840413          	addi	s0,s0,104
    245a:	bf71                	j	23f6 <__sfp+0x22>
    245c:	4591                	li	a1,4
    245e:	854a                	mv	a0,s2
    2460:	35d9                	jal	2326 <__sfmoreglue>
    2462:	c088                	sw	a0,0(s1)
    2464:	fd51                	bnez	a0,2400 <__sfp+0x2c>
    2466:	47b1                	li	a5,12
    2468:	00f92023          	sw	a5,0(s2)
    246c:	4401                	li	s0,0
    246e:	bfe9                	j	2448 <__sfp+0x74>

00002470 <_fwalk_reent>:
    2470:	7179                	addi	sp,sp,-48
    2472:	d422                	sw	s0,40(sp)
    2474:	d04a                	sw	s2,32(sp)
    2476:	cc52                	sw	s4,24(sp)
    2478:	ca56                	sw	s5,20(sp)
    247a:	c85a                	sw	s6,16(sp)
    247c:	c65e                	sw	s7,12(sp)
    247e:	d606                	sw	ra,44(sp)
    2480:	d226                	sw	s1,36(sp)
    2482:	ce4e                	sw	s3,28(sp)
    2484:	8a2a                	mv	s4,a0
    2486:	8aae                	mv	s5,a1
    2488:	04850413          	addi	s0,a0,72
    248c:	4901                	li	s2,0
    248e:	4b05                	li	s6,1
    2490:	5bfd                	li	s7,-1
    2492:	ec09                	bnez	s0,24ac <_fwalk_reent+0x3c>
    2494:	50b2                	lw	ra,44(sp)
    2496:	5422                	lw	s0,40(sp)
    2498:	854a                	mv	a0,s2
    249a:	5492                	lw	s1,36(sp)
    249c:	5902                	lw	s2,32(sp)
    249e:	49f2                	lw	s3,28(sp)
    24a0:	4a62                	lw	s4,24(sp)
    24a2:	4ad2                	lw	s5,20(sp)
    24a4:	4b42                	lw	s6,16(sp)
    24a6:	4bb2                	lw	s7,12(sp)
    24a8:	6145                	addi	sp,sp,48
    24aa:	8082                	ret
    24ac:	4404                	lw	s1,8(s0)
    24ae:	00442983          	lw	s3,4(s0)
    24b2:	19fd                	addi	s3,s3,-1
    24b4:	0009d463          	bgez	s3,24bc <_fwalk_reent+0x4c>
    24b8:	4000                	lw	s0,0(s0)
    24ba:	bfe1                	j	2492 <_fwalk_reent+0x22>
    24bc:	24de                	lhu	a5,12(s1)
    24be:	00fb7b63          	bgeu	s6,a5,24d4 <_fwalk_reent+0x64>
    24c2:	00e49783          	lh	a5,14(s1)
    24c6:	01778763          	beq	a5,s7,24d4 <_fwalk_reent+0x64>
    24ca:	85a6                	mv	a1,s1
    24cc:	8552                	mv	a0,s4
    24ce:	9a82                	jalr	s5
    24d0:	00a96933          	or	s2,s2,a0
    24d4:	06848493          	addi	s1,s1,104
    24d8:	bfe9                	j	24b2 <_fwalk_reent+0x42>

000024da <__locale_ctype_ptr_l>:
    24da:	0ec52503          	lw	a0,236(a0)
    24de:	8082                	ret

000024e0 <__ascii_mbtowc>:
    24e0:	ed91                	bnez	a1,24fc <__ascii_mbtowc+0x1c>
    24e2:	1141                	addi	sp,sp,-16
    24e4:	006c                	addi	a1,sp,12
    24e6:	4501                	li	a0,0
    24e8:	ca01                	beqz	a2,24f8 <__ascii_mbtowc+0x18>
    24ea:	5579                	li	a0,-2
    24ec:	c691                	beqz	a3,24f8 <__ascii_mbtowc+0x18>
    24ee:	221c                	lbu	a5,0(a2)
    24f0:	c19c                	sw	a5,0(a1)
    24f2:	2208                	lbu	a0,0(a2)
    24f4:	00a03533          	snez	a0,a0
    24f8:	0141                	addi	sp,sp,16
    24fa:	8082                	ret
    24fc:	4501                	li	a0,0
    24fe:	ca09                	beqz	a2,2510 <__ascii_mbtowc+0x30>
    2500:	5579                	li	a0,-2
    2502:	c699                	beqz	a3,2510 <__ascii_mbtowc+0x30>
    2504:	221c                	lbu	a5,0(a2)
    2506:	c19c                	sw	a5,0(a1)
    2508:	2208                	lbu	a0,0(a2)
    250a:	00a03533          	snez	a0,a0
    250e:	8082                	ret
    2510:	8082                	ret

00002512 <__malloc_lock>:
    2512:	8082                	ret

00002514 <__malloc_unlock>:
    2514:	8082                	ret

00002516 <__ssputs_r>:
    2516:	1101                	addi	sp,sp,-32
    2518:	c84a                	sw	s2,16(sp)
    251a:	0085a903          	lw	s2,8(a1)
    251e:	cc22                	sw	s0,24(sp)
    2520:	c452                	sw	s4,8(sp)
    2522:	c05a                	sw	s6,0(sp)
    2524:	ce06                	sw	ra,28(sp)
    2526:	ca26                	sw	s1,20(sp)
    2528:	c64e                	sw	s3,12(sp)
    252a:	c256                	sw	s5,4(sp)
    252c:	842e                	mv	s0,a1
    252e:	8b32                	mv	s6,a2
    2530:	8a36                	mv	s4,a3
    2532:	0926e963          	bltu	a3,s2,25c4 <__ssputs_r+0xae>
    2536:	25de                	lhu	a5,12(a1)
    2538:	4807f713          	andi	a4,a5,1152
    253c:	c351                	beqz	a4,25c0 <__ssputs_r+0xaa>
    253e:	4004                	lw	s1,0(s0)
    2540:	498c                	lw	a1,16(a1)
    2542:	4858                	lw	a4,20(s0)
    2544:	8aaa                	mv	s5,a0
    2546:	40b489b3          	sub	s3,s1,a1
    254a:	448d                	li	s1,3
    254c:	02e484b3          	mul	s1,s1,a4
    2550:	4709                	li	a4,2
    2552:	02e4c4b3          	div	s1,s1,a4
    2556:	00168713          	addi	a4,a3,1 # fc000001 <_eusrstack+0xdbffb001>
    255a:	974e                	add	a4,a4,s3
    255c:	00e4f363          	bgeu	s1,a4,2562 <__ssputs_r+0x4c>
    2560:	84ba                	mv	s1,a4
    2562:	4007f793          	andi	a5,a5,1024
    2566:	cfbd                	beqz	a5,25e4 <__ssputs_r+0xce>
    2568:	85a6                	mv	a1,s1
    256a:	8556                	mv	a0,s5
    256c:	a35ff0ef          	jal	ra,1fa0 <_malloc_r>
    2570:	892a                	mv	s2,a0
    2572:	e11d                	bnez	a0,2598 <__ssputs_r+0x82>
    2574:	47b1                	li	a5,12
    2576:	00faa023          	sw	a5,0(s5)
    257a:	245e                	lhu	a5,12(s0)
    257c:	557d                	li	a0,-1
    257e:	0407e793          	ori	a5,a5,64
    2582:	a45e                	sh	a5,12(s0)
    2584:	40f2                	lw	ra,28(sp)
    2586:	4462                	lw	s0,24(sp)
    2588:	44d2                	lw	s1,20(sp)
    258a:	4942                	lw	s2,16(sp)
    258c:	49b2                	lw	s3,12(sp)
    258e:	4a22                	lw	s4,8(sp)
    2590:	4a92                	lw	s5,4(sp)
    2592:	4b02                	lw	s6,0(sp)
    2594:	6105                	addi	sp,sp,32
    2596:	8082                	ret
    2598:	480c                	lw	a1,16(s0)
    259a:	864e                	mv	a2,s3
    259c:	705000ef          	jal	ra,34a0 <memcpy>
    25a0:	245e                	lhu	a5,12(s0)
    25a2:	b7f7f793          	andi	a5,a5,-1153
    25a6:	0807e793          	ori	a5,a5,128
    25aa:	a45e                	sh	a5,12(s0)
    25ac:	01242823          	sw	s2,16(s0)
    25b0:	c844                	sw	s1,20(s0)
    25b2:	994e                	add	s2,s2,s3
    25b4:	413484b3          	sub	s1,s1,s3
    25b8:	01242023          	sw	s2,0(s0)
    25bc:	c404                	sw	s1,8(s0)
    25be:	8952                	mv	s2,s4
    25c0:	012a7363          	bgeu	s4,s2,25c6 <__ssputs_r+0xb0>
    25c4:	8952                	mv	s2,s4
    25c6:	4008                	lw	a0,0(s0)
    25c8:	864a                	mv	a2,s2
    25ca:	85da                	mv	a1,s6
    25cc:	787000ef          	jal	ra,3552 <memmove>
    25d0:	441c                	lw	a5,8(s0)
    25d2:	4501                	li	a0,0
    25d4:	412787b3          	sub	a5,a5,s2
    25d8:	c41c                	sw	a5,8(s0)
    25da:	401c                	lw	a5,0(s0)
    25dc:	993e                	add	s2,s2,a5
    25de:	01242023          	sw	s2,0(s0)
    25e2:	b74d                	j	2584 <__ssputs_r+0x6e>
    25e4:	8626                	mv	a2,s1
    25e6:	8556                	mv	a0,s5
    25e8:	7b1000ef          	jal	ra,3598 <_realloc_r>
    25ec:	892a                	mv	s2,a0
    25ee:	fd5d                	bnez	a0,25ac <__ssputs_r+0x96>
    25f0:	480c                	lw	a1,16(s0)
    25f2:	8556                	mv	a0,s5
    25f4:	909ff0ef          	jal	ra,1efc <_free_r>
    25f8:	bfb5                	j	2574 <__ssputs_r+0x5e>

000025fa <_svfiprintf_r>:
    25fa:	25de                	lhu	a5,12(a1)
    25fc:	7171                	addi	sp,sp,-176
    25fe:	d326                	sw	s1,164(sp)
    2600:	d14a                	sw	s2,160(sp)
    2602:	cf4e                	sw	s3,156(sp)
    2604:	d706                	sw	ra,172(sp)
    2606:	d522                	sw	s0,168(sp)
    2608:	cd52                	sw	s4,152(sp)
    260a:	cb56                	sw	s5,148(sp)
    260c:	c95a                	sw	s6,144(sp)
    260e:	c75e                	sw	s7,140(sp)
    2610:	c562                	sw	s8,136(sp)
    2612:	c366                	sw	s9,132(sp)
    2614:	0807f793          	andi	a5,a5,128
    2618:	89aa                	mv	s3,a0
    261a:	892e                	mv	s2,a1
    261c:	84b2                	mv	s1,a2
    261e:	c3b9                	beqz	a5,2664 <_svfiprintf_r+0x6a>
    2620:	499c                	lw	a5,16(a1)
    2622:	e3a9                	bnez	a5,2664 <_svfiprintf_r+0x6a>
    2624:	04000593          	li	a1,64
    2628:	c636                	sw	a3,12(sp)
    262a:	977ff0ef          	jal	ra,1fa0 <_malloc_r>
    262e:	00a92023          	sw	a0,0(s2)
    2632:	00a92823          	sw	a0,16(s2)
    2636:	46b2                	lw	a3,12(sp)
    2638:	e115                	bnez	a0,265c <_svfiprintf_r+0x62>
    263a:	47b1                	li	a5,12
    263c:	00f9a023          	sw	a5,0(s3)
    2640:	557d                	li	a0,-1
    2642:	50ba                	lw	ra,172(sp)
    2644:	542a                	lw	s0,168(sp)
    2646:	549a                	lw	s1,164(sp)
    2648:	590a                	lw	s2,160(sp)
    264a:	49fa                	lw	s3,156(sp)
    264c:	4a6a                	lw	s4,152(sp)
    264e:	4ada                	lw	s5,148(sp)
    2650:	4b4a                	lw	s6,144(sp)
    2652:	4bba                	lw	s7,140(sp)
    2654:	4c2a                	lw	s8,136(sp)
    2656:	4c9a                	lw	s9,132(sp)
    2658:	614d                	addi	sp,sp,176
    265a:	8082                	ret
    265c:	04000793          	li	a5,64
    2660:	00f92a23          	sw	a5,20(s2)
    2664:	02000793          	li	a5,32
    2668:	02f10ca3          	sb	a5,57(sp)
    266c:	03000793          	li	a5,48
    2670:	da02                	sw	zero,52(sp)
    2672:	02f10d23          	sb	a5,58(sp)
    2676:	ce36                	sw	a3,28(sp)
    2678:	02500b93          	li	s7,37
    267c:	00002a97          	auipc	s5,0x2
    2680:	940a8a93          	addi	s5,s5,-1728 # 3fbc <__sf_fake_stdout+0x30>
    2684:	4c05                	li	s8,1
    2686:	4b29                	li	s6,10
    2688:	8426                	mv	s0,s1
    268a:	201c                	lbu	a5,0(s0)
    268c:	c399                	beqz	a5,2692 <_svfiprintf_r+0x98>
    268e:	09779863          	bne	a5,s7,271e <_svfiprintf_r+0x124>
    2692:	40940cb3          	sub	s9,s0,s1
    2696:	000c8d63          	beqz	s9,26b0 <_svfiprintf_r+0xb6>
    269a:	86e6                	mv	a3,s9
    269c:	8626                	mv	a2,s1
    269e:	85ca                	mv	a1,s2
    26a0:	854e                	mv	a0,s3
    26a2:	3d95                	jal	2516 <__ssputs_r>
    26a4:	57fd                	li	a5,-1
    26a6:	18f50b63          	beq	a0,a5,283c <_svfiprintf_r+0x242>
    26aa:	56d2                	lw	a3,52(sp)
    26ac:	96e6                	add	a3,a3,s9
    26ae:	da36                	sw	a3,52(sp)
    26b0:	201c                	lbu	a5,0(s0)
    26b2:	18078563          	beqz	a5,283c <_svfiprintf_r+0x242>
    26b6:	57fd                	li	a5,-1
    26b8:	00140493          	addi	s1,s0,1
    26bc:	d002                	sw	zero,32(sp)
    26be:	d602                	sw	zero,44(sp)
    26c0:	d23e                	sw	a5,36(sp)
    26c2:	d402                	sw	zero,40(sp)
    26c4:	060101a3          	sb	zero,99(sp)
    26c8:	dc82                	sw	zero,120(sp)
    26ca:	208c                	lbu	a1,0(s1)
    26cc:	4615                	li	a2,5
    26ce:	8556                	mv	a0,s5
    26d0:	5b9000ef          	jal	ra,3488 <memchr>
    26d4:	00148413          	addi	s0,s1,1
    26d8:	5782                	lw	a5,32(sp)
    26da:	e521                	bnez	a0,2722 <_svfiprintf_r+0x128>
    26dc:	0107f713          	andi	a4,a5,16
    26e0:	c709                	beqz	a4,26ea <_svfiprintf_r+0xf0>
    26e2:	02000713          	li	a4,32
    26e6:	06e101a3          	sb	a4,99(sp)
    26ea:	0087f713          	andi	a4,a5,8
    26ee:	c709                	beqz	a4,26f8 <_svfiprintf_r+0xfe>
    26f0:	02b00713          	li	a4,43
    26f4:	06e101a3          	sb	a4,99(sp)
    26f8:	2094                	lbu	a3,0(s1)
    26fa:	02a00713          	li	a4,42
    26fe:	02e68a63          	beq	a3,a4,2732 <_svfiprintf_r+0x138>
    2702:	57b2                	lw	a5,44(sp)
    2704:	8426                	mv	s0,s1
    2706:	4681                	li	a3,0
    2708:	4625                	li	a2,9
    270a:	2018                	lbu	a4,0(s0)
    270c:	00140593          	addi	a1,s0,1
    2710:	fd070713          	addi	a4,a4,-48
    2714:	06e67263          	bgeu	a2,a4,2778 <_svfiprintf_r+0x17e>
    2718:	c68d                	beqz	a3,2742 <_svfiprintf_r+0x148>
    271a:	d63e                	sw	a5,44(sp)
    271c:	a01d                	j	2742 <_svfiprintf_r+0x148>
    271e:	0405                	addi	s0,s0,1
    2720:	b7ad                	j	268a <_svfiprintf_r+0x90>
    2722:	41550533          	sub	a0,a0,s5
    2726:	00ac1533          	sll	a0,s8,a0
    272a:	8fc9                	or	a5,a5,a0
    272c:	d03e                	sw	a5,32(sp)
    272e:	84a2                	mv	s1,s0
    2730:	bf69                	j	26ca <_svfiprintf_r+0xd0>
    2732:	4772                	lw	a4,28(sp)
    2734:	00470693          	addi	a3,a4,4
    2738:	4318                	lw	a4,0(a4)
    273a:	ce36                	sw	a3,28(sp)
    273c:	02074763          	bltz	a4,276a <_svfiprintf_r+0x170>
    2740:	d63a                	sw	a4,44(sp)
    2742:	2018                	lbu	a4,0(s0)
    2744:	02e00793          	li	a5,46
    2748:	04f71d63          	bne	a4,a5,27a2 <_svfiprintf_r+0x1a8>
    274c:	3018                	lbu	a4,1(s0)
    274e:	02a00793          	li	a5,42
    2752:	02f71b63          	bne	a4,a5,2788 <_svfiprintf_r+0x18e>
    2756:	47f2                	lw	a5,28(sp)
    2758:	0409                	addi	s0,s0,2
    275a:	00478713          	addi	a4,a5,4 # ffff0004 <_eusrstack+0xdffeb004>
    275e:	439c                	lw	a5,0(a5)
    2760:	ce3a                	sw	a4,28(sp)
    2762:	0207c163          	bltz	a5,2784 <_svfiprintf_r+0x18a>
    2766:	d23e                	sw	a5,36(sp)
    2768:	a82d                	j	27a2 <_svfiprintf_r+0x1a8>
    276a:	40e00733          	neg	a4,a4
    276e:	0027e793          	ori	a5,a5,2
    2772:	d63a                	sw	a4,44(sp)
    2774:	d03e                	sw	a5,32(sp)
    2776:	b7f1                	j	2742 <_svfiprintf_r+0x148>
    2778:	036787b3          	mul	a5,a5,s6
    277c:	4685                	li	a3,1
    277e:	842e                	mv	s0,a1
    2780:	97ba                	add	a5,a5,a4
    2782:	b761                	j	270a <_svfiprintf_r+0x110>
    2784:	57fd                	li	a5,-1
    2786:	b7c5                	j	2766 <_svfiprintf_r+0x16c>
    2788:	0405                	addi	s0,s0,1
    278a:	d202                	sw	zero,36(sp)
    278c:	4681                	li	a3,0
    278e:	4781                	li	a5,0
    2790:	4625                	li	a2,9
    2792:	2018                	lbu	a4,0(s0)
    2794:	00140593          	addi	a1,s0,1
    2798:	fd070713          	addi	a4,a4,-48
    279c:	06e67663          	bgeu	a2,a4,2808 <_svfiprintf_r+0x20e>
    27a0:	f2f9                	bnez	a3,2766 <_svfiprintf_r+0x16c>
    27a2:	200c                	lbu	a1,0(s0)
    27a4:	460d                	li	a2,3
    27a6:	00002517          	auipc	a0,0x2
    27aa:	81e50513          	addi	a0,a0,-2018 # 3fc4 <__sf_fake_stdout+0x38>
    27ae:	4db000ef          	jal	ra,3488 <memchr>
    27b2:	cd11                	beqz	a0,27ce <_svfiprintf_r+0x1d4>
    27b4:	00002797          	auipc	a5,0x2
    27b8:	81078793          	addi	a5,a5,-2032 # 3fc4 <__sf_fake_stdout+0x38>
    27bc:	8d1d                	sub	a0,a0,a5
    27be:	04000793          	li	a5,64
    27c2:	00a797b3          	sll	a5,a5,a0
    27c6:	5502                	lw	a0,32(sp)
    27c8:	0405                	addi	s0,s0,1
    27ca:	8d5d                	or	a0,a0,a5
    27cc:	d02a                	sw	a0,32(sp)
    27ce:	200c                	lbu	a1,0(s0)
    27d0:	4619                	li	a2,6
    27d2:	00001517          	auipc	a0,0x1
    27d6:	7f650513          	addi	a0,a0,2038 # 3fc8 <__sf_fake_stdout+0x3c>
    27da:	00140493          	addi	s1,s0,1
    27de:	02b10c23          	sb	a1,56(sp)
    27e2:	4a7000ef          	jal	ra,3488 <memchr>
    27e6:	c525                	beqz	a0,284e <_svfiprintf_r+0x254>
    27e8:	ffffe797          	auipc	a5,0xffffe
    27ec:	81878793          	addi	a5,a5,-2024 # 0 <_sinit>
    27f0:	e795                	bnez	a5,281c <_svfiprintf_r+0x222>
    27f2:	5702                	lw	a4,32(sp)
    27f4:	47f2                	lw	a5,28(sp)
    27f6:	10077713          	andi	a4,a4,256
    27fa:	cf09                	beqz	a4,2814 <_svfiprintf_r+0x21a>
    27fc:	0791                	addi	a5,a5,4
    27fe:	ce3e                	sw	a5,28(sp)
    2800:	57d2                	lw	a5,52(sp)
    2802:	97d2                	add	a5,a5,s4
    2804:	da3e                	sw	a5,52(sp)
    2806:	b549                	j	2688 <_svfiprintf_r+0x8e>
    2808:	036787b3          	mul	a5,a5,s6
    280c:	4685                	li	a3,1
    280e:	842e                	mv	s0,a1
    2810:	97ba                	add	a5,a5,a4
    2812:	b741                	j	2792 <_svfiprintf_r+0x198>
    2814:	079d                	addi	a5,a5,7
    2816:	9be1                	andi	a5,a5,-8
    2818:	07a1                	addi	a5,a5,8
    281a:	b7d5                	j	27fe <_svfiprintf_r+0x204>
    281c:	0878                	addi	a4,sp,28
    281e:	00000697          	auipc	a3,0x0
    2822:	cf868693          	addi	a3,a3,-776 # 2516 <__ssputs_r>
    2826:	864a                	mv	a2,s2
    2828:	100c                	addi	a1,sp,32
    282a:	854e                	mv	a0,s3
    282c:	00000097          	auipc	ra,0x0
    2830:	000000e7          	jalr	zero # 0 <_sinit>
    2834:	57fd                	li	a5,-1
    2836:	8a2a                	mv	s4,a0
    2838:	fcf514e3          	bne	a0,a5,2800 <_svfiprintf_r+0x206>
    283c:	00c95783          	lhu	a5,12(s2)
    2840:	557d                	li	a0,-1
    2842:	0407f793          	andi	a5,a5,64
    2846:	de079ee3          	bnez	a5,2642 <_svfiprintf_r+0x48>
    284a:	5552                	lw	a0,52(sp)
    284c:	bbdd                	j	2642 <_svfiprintf_r+0x48>
    284e:	0878                	addi	a4,sp,28
    2850:	00000697          	auipc	a3,0x0
    2854:	cc668693          	addi	a3,a3,-826 # 2516 <__ssputs_r>
    2858:	864a                	mv	a2,s2
    285a:	100c                	addi	a1,sp,32
    285c:	854e                	mv	a0,s3
    285e:	2101                	jal	2c5e <_printf_i>
    2860:	bfd1                	j	2834 <_svfiprintf_r+0x23a>

00002862 <__sfputc_r>:
    2862:	461c                	lw	a5,8(a2)
    2864:	17fd                	addi	a5,a5,-1
    2866:	c61c                	sw	a5,8(a2)
    2868:	0007d963          	bgez	a5,287a <__sfputc_r+0x18>
    286c:	4e18                	lw	a4,24(a2)
    286e:	00e7c563          	blt	a5,a4,2878 <__sfputc_r+0x16>
    2872:	47a9                	li	a5,10
    2874:	00f59363          	bne	a1,a5,287a <__sfputc_r+0x18>
    2878:	af0d                	j	2faa <__swbuf_r>
    287a:	421c                	lw	a5,0(a2)
    287c:	852e                	mv	a0,a1
    287e:	00178713          	addi	a4,a5,1
    2882:	c218                	sw	a4,0(a2)
    2884:	a38c                	sb	a1,0(a5)
    2886:	8082                	ret

00002888 <__sfputs_r>:
    2888:	1101                	addi	sp,sp,-32
    288a:	cc22                	sw	s0,24(sp)
    288c:	ca26                	sw	s1,20(sp)
    288e:	c84a                	sw	s2,16(sp)
    2890:	c64e                	sw	s3,12(sp)
    2892:	c452                	sw	s4,8(sp)
    2894:	ce06                	sw	ra,28(sp)
    2896:	892a                	mv	s2,a0
    2898:	89ae                	mv	s3,a1
    289a:	8432                	mv	s0,a2
    289c:	00d604b3          	add	s1,a2,a3
    28a0:	5a7d                	li	s4,-1
    28a2:	00941463          	bne	s0,s1,28aa <__sfputs_r+0x22>
    28a6:	4501                	li	a0,0
    28a8:	a801                	j	28b8 <__sfputs_r+0x30>
    28aa:	200c                	lbu	a1,0(s0)
    28ac:	864e                	mv	a2,s3
    28ae:	854a                	mv	a0,s2
    28b0:	3f4d                	jal	2862 <__sfputc_r>
    28b2:	0405                	addi	s0,s0,1
    28b4:	ff4517e3          	bne	a0,s4,28a2 <__sfputs_r+0x1a>
    28b8:	40f2                	lw	ra,28(sp)
    28ba:	4462                	lw	s0,24(sp)
    28bc:	44d2                	lw	s1,20(sp)
    28be:	4942                	lw	s2,16(sp)
    28c0:	49b2                	lw	s3,12(sp)
    28c2:	4a22                	lw	s4,8(sp)
    28c4:	6105                	addi	sp,sp,32
    28c6:	8082                	ret

000028c8 <_vfiprintf_r>:
    28c8:	7135                	addi	sp,sp,-160
    28ca:	cd22                	sw	s0,152(sp)
    28cc:	cb26                	sw	s1,148(sp)
    28ce:	c94a                	sw	s2,144(sp)
    28d0:	c74e                	sw	s3,140(sp)
    28d2:	cf06                	sw	ra,156(sp)
    28d4:	c552                	sw	s4,136(sp)
    28d6:	c356                	sw	s5,132(sp)
    28d8:	c15a                	sw	s6,128(sp)
    28da:	dede                	sw	s7,124(sp)
    28dc:	dce2                	sw	s8,120(sp)
    28de:	dae6                	sw	s9,116(sp)
    28e0:	89aa                	mv	s3,a0
    28e2:	84ae                	mv	s1,a1
    28e4:	8932                	mv	s2,a2
    28e6:	8436                	mv	s0,a3
    28e8:	c509                	beqz	a0,28f2 <_vfiprintf_r+0x2a>
    28ea:	4d1c                	lw	a5,24(a0)
    28ec:	e399                	bnez	a5,28f2 <_vfiprintf_r+0x2a>
    28ee:	a81ff0ef          	jal	ra,236e <__sinit>
    28f2:	00001797          	auipc	a5,0x1
    28f6:	67a78793          	addi	a5,a5,1658 # 3f6c <__sf_fake_stdin>
    28fa:	0cf49863          	bne	s1,a5,29ca <_vfiprintf_r+0x102>
    28fe:	0049a483          	lw	s1,4(s3)
    2902:	24de                	lhu	a5,12(s1)
    2904:	8ba1                	andi	a5,a5,8
    2906:	c7e5                	beqz	a5,29ee <_vfiprintf_r+0x126>
    2908:	489c                	lw	a5,16(s1)
    290a:	c3f5                	beqz	a5,29ee <_vfiprintf_r+0x126>
    290c:	02000793          	li	a5,32
    2910:	02f104a3          	sb	a5,41(sp)
    2914:	03000793          	li	a5,48
    2918:	d202                	sw	zero,36(sp)
    291a:	02f10523          	sb	a5,42(sp)
    291e:	c622                	sw	s0,12(sp)
    2920:	02500b93          	li	s7,37
    2924:	00001a97          	auipc	s5,0x1
    2928:	698a8a93          	addi	s5,s5,1688 # 3fbc <__sf_fake_stdout+0x30>
    292c:	4c05                	li	s8,1
    292e:	4b29                	li	s6,10
    2930:	844a                	mv	s0,s2
    2932:	201c                	lbu	a5,0(s0)
    2934:	c399                	beqz	a5,293a <_vfiprintf_r+0x72>
    2936:	0d779e63          	bne	a5,s7,2a12 <_vfiprintf_r+0x14a>
    293a:	41240cb3          	sub	s9,s0,s2
    293e:	000c8d63          	beqz	s9,2958 <_vfiprintf_r+0x90>
    2942:	86e6                	mv	a3,s9
    2944:	864a                	mv	a2,s2
    2946:	85a6                	mv	a1,s1
    2948:	854e                	mv	a0,s3
    294a:	3f3d                	jal	2888 <__sfputs_r>
    294c:	57fd                	li	a5,-1
    294e:	1ef50163          	beq	a0,a5,2b30 <_vfiprintf_r+0x268>
    2952:	5692                	lw	a3,36(sp)
    2954:	96e6                	add	a3,a3,s9
    2956:	d236                	sw	a3,36(sp)
    2958:	201c                	lbu	a5,0(s0)
    295a:	1c078b63          	beqz	a5,2b30 <_vfiprintf_r+0x268>
    295e:	57fd                	li	a5,-1
    2960:	00140913          	addi	s2,s0,1
    2964:	c802                	sw	zero,16(sp)
    2966:	ce02                	sw	zero,28(sp)
    2968:	ca3e                	sw	a5,20(sp)
    296a:	cc02                	sw	zero,24(sp)
    296c:	040109a3          	sb	zero,83(sp)
    2970:	d482                	sw	zero,104(sp)
    2972:	00094583          	lbu	a1,0(s2)
    2976:	4615                	li	a2,5
    2978:	8556                	mv	a0,s5
    297a:	30f000ef          	jal	ra,3488 <memchr>
    297e:	00190413          	addi	s0,s2,1
    2982:	47c2                	lw	a5,16(sp)
    2984:	e949                	bnez	a0,2a16 <_vfiprintf_r+0x14e>
    2986:	0107f713          	andi	a4,a5,16
    298a:	c709                	beqz	a4,2994 <_vfiprintf_r+0xcc>
    298c:	02000713          	li	a4,32
    2990:	04e109a3          	sb	a4,83(sp)
    2994:	0087f713          	andi	a4,a5,8
    2998:	c709                	beqz	a4,29a2 <_vfiprintf_r+0xda>
    299a:	02b00713          	li	a4,43
    299e:	04e109a3          	sb	a4,83(sp)
    29a2:	00094683          	lbu	a3,0(s2)
    29a6:	02a00713          	li	a4,42
    29aa:	06e68e63          	beq	a3,a4,2a26 <_vfiprintf_r+0x15e>
    29ae:	47f2                	lw	a5,28(sp)
    29b0:	844a                	mv	s0,s2
    29b2:	4681                	li	a3,0
    29b4:	4625                	li	a2,9
    29b6:	2018                	lbu	a4,0(s0)
    29b8:	00140593          	addi	a1,s0,1
    29bc:	fd070713          	addi	a4,a4,-48
    29c0:	0ae67663          	bgeu	a2,a4,2a6c <_vfiprintf_r+0x1a4>
    29c4:	caad                	beqz	a3,2a36 <_vfiprintf_r+0x16e>
    29c6:	ce3e                	sw	a5,28(sp)
    29c8:	a0bd                	j	2a36 <_vfiprintf_r+0x16e>
    29ca:	00001797          	auipc	a5,0x1
    29ce:	5c278793          	addi	a5,a5,1474 # 3f8c <__sf_fake_stdout>
    29d2:	00f49563          	bne	s1,a5,29dc <_vfiprintf_r+0x114>
    29d6:	0089a483          	lw	s1,8(s3)
    29da:	b725                	j	2902 <_vfiprintf_r+0x3a>
    29dc:	00001797          	auipc	a5,0x1
    29e0:	57078793          	addi	a5,a5,1392 # 3f4c <__sf_fake_stderr>
    29e4:	f0f49fe3          	bne	s1,a5,2902 <_vfiprintf_r+0x3a>
    29e8:	00c9a483          	lw	s1,12(s3)
    29ec:	bf19                	j	2902 <_vfiprintf_r+0x3a>
    29ee:	85a6                	mv	a1,s1
    29f0:	854e                	mv	a0,s3
    29f2:	25c9                	jal	30b4 <__swsetup_r>
    29f4:	dd01                	beqz	a0,290c <_vfiprintf_r+0x44>
    29f6:	557d                	li	a0,-1
    29f8:	40fa                	lw	ra,156(sp)
    29fa:	446a                	lw	s0,152(sp)
    29fc:	44da                	lw	s1,148(sp)
    29fe:	494a                	lw	s2,144(sp)
    2a00:	49ba                	lw	s3,140(sp)
    2a02:	4a2a                	lw	s4,136(sp)
    2a04:	4a9a                	lw	s5,132(sp)
    2a06:	4b0a                	lw	s6,128(sp)
    2a08:	5bf6                	lw	s7,124(sp)
    2a0a:	5c66                	lw	s8,120(sp)
    2a0c:	5cd6                	lw	s9,116(sp)
    2a0e:	610d                	addi	sp,sp,160
    2a10:	8082                	ret
    2a12:	0405                	addi	s0,s0,1
    2a14:	bf39                	j	2932 <_vfiprintf_r+0x6a>
    2a16:	41550533          	sub	a0,a0,s5
    2a1a:	00ac1533          	sll	a0,s8,a0
    2a1e:	8fc9                	or	a5,a5,a0
    2a20:	c83e                	sw	a5,16(sp)
    2a22:	8922                	mv	s2,s0
    2a24:	b7b9                	j	2972 <_vfiprintf_r+0xaa>
    2a26:	4732                	lw	a4,12(sp)
    2a28:	00470693          	addi	a3,a4,4
    2a2c:	4318                	lw	a4,0(a4)
    2a2e:	c636                	sw	a3,12(sp)
    2a30:	02074763          	bltz	a4,2a5e <_vfiprintf_r+0x196>
    2a34:	ce3a                	sw	a4,28(sp)
    2a36:	2018                	lbu	a4,0(s0)
    2a38:	02e00793          	li	a5,46
    2a3c:	04f71d63          	bne	a4,a5,2a96 <_vfiprintf_r+0x1ce>
    2a40:	3018                	lbu	a4,1(s0)
    2a42:	02a00793          	li	a5,42
    2a46:	02f71b63          	bne	a4,a5,2a7c <_vfiprintf_r+0x1b4>
    2a4a:	47b2                	lw	a5,12(sp)
    2a4c:	0409                	addi	s0,s0,2
    2a4e:	00478713          	addi	a4,a5,4
    2a52:	439c                	lw	a5,0(a5)
    2a54:	c63a                	sw	a4,12(sp)
    2a56:	0207c163          	bltz	a5,2a78 <_vfiprintf_r+0x1b0>
    2a5a:	ca3e                	sw	a5,20(sp)
    2a5c:	a82d                	j	2a96 <_vfiprintf_r+0x1ce>
    2a5e:	40e00733          	neg	a4,a4
    2a62:	0027e793          	ori	a5,a5,2
    2a66:	ce3a                	sw	a4,28(sp)
    2a68:	c83e                	sw	a5,16(sp)
    2a6a:	b7f1                	j	2a36 <_vfiprintf_r+0x16e>
    2a6c:	036787b3          	mul	a5,a5,s6
    2a70:	4685                	li	a3,1
    2a72:	842e                	mv	s0,a1
    2a74:	97ba                	add	a5,a5,a4
    2a76:	b781                	j	29b6 <_vfiprintf_r+0xee>
    2a78:	57fd                	li	a5,-1
    2a7a:	b7c5                	j	2a5a <_vfiprintf_r+0x192>
    2a7c:	0405                	addi	s0,s0,1
    2a7e:	ca02                	sw	zero,20(sp)
    2a80:	4681                	li	a3,0
    2a82:	4781                	li	a5,0
    2a84:	4625                	li	a2,9
    2a86:	2018                	lbu	a4,0(s0)
    2a88:	00140593          	addi	a1,s0,1
    2a8c:	fd070713          	addi	a4,a4,-48
    2a90:	06e67663          	bgeu	a2,a4,2afc <_vfiprintf_r+0x234>
    2a94:	f2f9                	bnez	a3,2a5a <_vfiprintf_r+0x192>
    2a96:	200c                	lbu	a1,0(s0)
    2a98:	460d                	li	a2,3
    2a9a:	00001517          	auipc	a0,0x1
    2a9e:	52a50513          	addi	a0,a0,1322 # 3fc4 <__sf_fake_stdout+0x38>
    2aa2:	1e7000ef          	jal	ra,3488 <memchr>
    2aa6:	cd11                	beqz	a0,2ac2 <_vfiprintf_r+0x1fa>
    2aa8:	00001797          	auipc	a5,0x1
    2aac:	51c78793          	addi	a5,a5,1308 # 3fc4 <__sf_fake_stdout+0x38>
    2ab0:	8d1d                	sub	a0,a0,a5
    2ab2:	04000793          	li	a5,64
    2ab6:	00a797b3          	sll	a5,a5,a0
    2aba:	4542                	lw	a0,16(sp)
    2abc:	0405                	addi	s0,s0,1
    2abe:	8d5d                	or	a0,a0,a5
    2ac0:	c82a                	sw	a0,16(sp)
    2ac2:	200c                	lbu	a1,0(s0)
    2ac4:	4619                	li	a2,6
    2ac6:	00001517          	auipc	a0,0x1
    2aca:	50250513          	addi	a0,a0,1282 # 3fc8 <__sf_fake_stdout+0x3c>
    2ace:	00140913          	addi	s2,s0,1
    2ad2:	02b10423          	sb	a1,40(sp)
    2ad6:	1b3000ef          	jal	ra,3488 <memchr>
    2ada:	c135                	beqz	a0,2b3e <_vfiprintf_r+0x276>
    2adc:	ffffd797          	auipc	a5,0xffffd
    2ae0:	52478793          	addi	a5,a5,1316 # 0 <_sinit>
    2ae4:	e795                	bnez	a5,2b10 <_vfiprintf_r+0x248>
    2ae6:	4742                	lw	a4,16(sp)
    2ae8:	47b2                	lw	a5,12(sp)
    2aea:	10077713          	andi	a4,a4,256
    2aee:	cf09                	beqz	a4,2b08 <_vfiprintf_r+0x240>
    2af0:	0791                	addi	a5,a5,4
    2af2:	c63e                	sw	a5,12(sp)
    2af4:	5792                	lw	a5,36(sp)
    2af6:	97d2                	add	a5,a5,s4
    2af8:	d23e                	sw	a5,36(sp)
    2afa:	bd1d                	j	2930 <_vfiprintf_r+0x68>
    2afc:	036787b3          	mul	a5,a5,s6
    2b00:	4685                	li	a3,1
    2b02:	842e                	mv	s0,a1
    2b04:	97ba                	add	a5,a5,a4
    2b06:	b741                	j	2a86 <_vfiprintf_r+0x1be>
    2b08:	079d                	addi	a5,a5,7
    2b0a:	9be1                	andi	a5,a5,-8
    2b0c:	07a1                	addi	a5,a5,8
    2b0e:	b7d5                	j	2af2 <_vfiprintf_r+0x22a>
    2b10:	0078                	addi	a4,sp,12
    2b12:	00000697          	auipc	a3,0x0
    2b16:	d7668693          	addi	a3,a3,-650 # 2888 <__sfputs_r>
    2b1a:	8626                	mv	a2,s1
    2b1c:	080c                	addi	a1,sp,16
    2b1e:	854e                	mv	a0,s3
    2b20:	00000097          	auipc	ra,0x0
    2b24:	000000e7          	jalr	zero # 0 <_sinit>
    2b28:	57fd                	li	a5,-1
    2b2a:	8a2a                	mv	s4,a0
    2b2c:	fcf514e3          	bne	a0,a5,2af4 <_vfiprintf_r+0x22c>
    2b30:	24de                	lhu	a5,12(s1)
    2b32:	0407f793          	andi	a5,a5,64
    2b36:	ec0790e3          	bnez	a5,29f6 <_vfiprintf_r+0x12e>
    2b3a:	5512                	lw	a0,36(sp)
    2b3c:	bd75                	j	29f8 <_vfiprintf_r+0x130>
    2b3e:	0078                	addi	a4,sp,12
    2b40:	00000697          	auipc	a3,0x0
    2b44:	d4868693          	addi	a3,a3,-696 # 2888 <__sfputs_r>
    2b48:	8626                	mv	a2,s1
    2b4a:	080c                	addi	a1,sp,16
    2b4c:	854e                	mv	a0,s3
    2b4e:	2a01                	jal	2c5e <_printf_i>
    2b50:	bfe1                	j	2b28 <_vfiprintf_r+0x260>

00002b52 <_printf_common>:
    2b52:	7179                	addi	sp,sp,-48
    2b54:	ca56                	sw	s5,20(sp)
    2b56:	499c                	lw	a5,16(a1)
    2b58:	8aba                	mv	s5,a4
    2b5a:	4598                	lw	a4,8(a1)
    2b5c:	d422                	sw	s0,40(sp)
    2b5e:	d226                	sw	s1,36(sp)
    2b60:	ce4e                	sw	s3,28(sp)
    2b62:	cc52                	sw	s4,24(sp)
    2b64:	d606                	sw	ra,44(sp)
    2b66:	d04a                	sw	s2,32(sp)
    2b68:	c85a                	sw	s6,16(sp)
    2b6a:	c65e                	sw	s7,12(sp)
    2b6c:	89aa                	mv	s3,a0
    2b6e:	842e                	mv	s0,a1
    2b70:	84b2                	mv	s1,a2
    2b72:	8a36                	mv	s4,a3
    2b74:	00e7d363          	bge	a5,a4,2b7a <_printf_common+0x28>
    2b78:	87ba                	mv	a5,a4
    2b7a:	c09c                	sw	a5,0(s1)
    2b7c:	04344703          	lbu	a4,67(s0)
    2b80:	c319                	beqz	a4,2b86 <_printf_common+0x34>
    2b82:	0785                	addi	a5,a5,1
    2b84:	c09c                	sw	a5,0(s1)
    2b86:	401c                	lw	a5,0(s0)
    2b88:	0207f793          	andi	a5,a5,32
    2b8c:	c781                	beqz	a5,2b94 <_printf_common+0x42>
    2b8e:	409c                	lw	a5,0(s1)
    2b90:	0789                	addi	a5,a5,2
    2b92:	c09c                	sw	a5,0(s1)
    2b94:	00042903          	lw	s2,0(s0)
    2b98:	00697913          	andi	s2,s2,6
    2b9c:	00091a63          	bnez	s2,2bb0 <_printf_common+0x5e>
    2ba0:	01940b13          	addi	s6,s0,25
    2ba4:	5bfd                	li	s7,-1
    2ba6:	445c                	lw	a5,12(s0)
    2ba8:	4098                	lw	a4,0(s1)
    2baa:	8f99                	sub	a5,a5,a4
    2bac:	04f94c63          	blt	s2,a5,2c04 <_printf_common+0xb2>
    2bb0:	401c                	lw	a5,0(s0)
    2bb2:	04344683          	lbu	a3,67(s0)
    2bb6:	0207f793          	andi	a5,a5,32
    2bba:	00d036b3          	snez	a3,a3
    2bbe:	eba5                	bnez	a5,2c2e <_printf_common+0xdc>
    2bc0:	04340613          	addi	a2,s0,67
    2bc4:	85d2                	mv	a1,s4
    2bc6:	854e                	mv	a0,s3
    2bc8:	9a82                	jalr	s5
    2bca:	57fd                	li	a5,-1
    2bcc:	04f50363          	beq	a0,a5,2c12 <_printf_common+0xc0>
    2bd0:	401c                	lw	a5,0(s0)
    2bd2:	4611                	li	a2,4
    2bd4:	4098                	lw	a4,0(s1)
    2bd6:	8b99                	andi	a5,a5,6
    2bd8:	4454                	lw	a3,12(s0)
    2bda:	4481                	li	s1,0
    2bdc:	00c79763          	bne	a5,a2,2bea <_printf_common+0x98>
    2be0:	40e684b3          	sub	s1,a3,a4
    2be4:	0004d363          	bgez	s1,2bea <_printf_common+0x98>
    2be8:	4481                	li	s1,0
    2bea:	441c                	lw	a5,8(s0)
    2bec:	4818                	lw	a4,16(s0)
    2bee:	00f75463          	bge	a4,a5,2bf6 <_printf_common+0xa4>
    2bf2:	8f99                	sub	a5,a5,a4
    2bf4:	94be                	add	s1,s1,a5
    2bf6:	4901                	li	s2,0
    2bf8:	0469                	addi	s0,s0,26
    2bfa:	5b7d                	li	s6,-1
    2bfc:	05249863          	bne	s1,s2,2c4c <_printf_common+0xfa>
    2c00:	4501                	li	a0,0
    2c02:	a809                	j	2c14 <_printf_common+0xc2>
    2c04:	4685                	li	a3,1
    2c06:	865a                	mv	a2,s6
    2c08:	85d2                	mv	a1,s4
    2c0a:	854e                	mv	a0,s3
    2c0c:	9a82                	jalr	s5
    2c0e:	01751e63          	bne	a0,s7,2c2a <_printf_common+0xd8>
    2c12:	557d                	li	a0,-1
    2c14:	50b2                	lw	ra,44(sp)
    2c16:	5422                	lw	s0,40(sp)
    2c18:	5492                	lw	s1,36(sp)
    2c1a:	5902                	lw	s2,32(sp)
    2c1c:	49f2                	lw	s3,28(sp)
    2c1e:	4a62                	lw	s4,24(sp)
    2c20:	4ad2                	lw	s5,20(sp)
    2c22:	4b42                	lw	s6,16(sp)
    2c24:	4bb2                	lw	s7,12(sp)
    2c26:	6145                	addi	sp,sp,48
    2c28:	8082                	ret
    2c2a:	0905                	addi	s2,s2,1
    2c2c:	bfad                	j	2ba6 <_printf_common+0x54>
    2c2e:	00d40733          	add	a4,s0,a3
    2c32:	03000613          	li	a2,48
    2c36:	04c701a3          	sb	a2,67(a4)
    2c3a:	04544703          	lbu	a4,69(s0)
    2c3e:	00168793          	addi	a5,a3,1
    2c42:	97a2                	add	a5,a5,s0
    2c44:	0689                	addi	a3,a3,2
    2c46:	04e781a3          	sb	a4,67(a5)
    2c4a:	bf9d                	j	2bc0 <_printf_common+0x6e>
    2c4c:	4685                	li	a3,1
    2c4e:	8622                	mv	a2,s0
    2c50:	85d2                	mv	a1,s4
    2c52:	854e                	mv	a0,s3
    2c54:	9a82                	jalr	s5
    2c56:	fb650ee3          	beq	a0,s6,2c12 <_printf_common+0xc0>
    2c5a:	0905                	addi	s2,s2,1
    2c5c:	b745                	j	2bfc <_printf_common+0xaa>

00002c5e <_printf_i>:
    2c5e:	7179                	addi	sp,sp,-48
    2c60:	d422                	sw	s0,40(sp)
    2c62:	d226                	sw	s1,36(sp)
    2c64:	d04a                	sw	s2,32(sp)
    2c66:	ce4e                	sw	s3,28(sp)
    2c68:	d606                	sw	ra,44(sp)
    2c6a:	cc52                	sw	s4,24(sp)
    2c6c:	ca56                	sw	s5,20(sp)
    2c6e:	c85a                	sw	s6,16(sp)
    2c70:	89b6                	mv	s3,a3
    2c72:	2d94                	lbu	a3,24(a1)
    2c74:	06900793          	li	a5,105
    2c78:	8932                	mv	s2,a2
    2c7a:	84aa                	mv	s1,a0
    2c7c:	842e                	mv	s0,a1
    2c7e:	04358613          	addi	a2,a1,67
    2c82:	02f68d63          	beq	a3,a5,2cbc <_printf_i+0x5e>
    2c86:	06d7e263          	bltu	a5,a3,2cea <_printf_i+0x8c>
    2c8a:	05800793          	li	a5,88
    2c8e:	18f68663          	beq	a3,a5,2e1a <_printf_i+0x1bc>
    2c92:	00d7ed63          	bltu	a5,a3,2cac <_printf_i+0x4e>
    2c96:	20068e63          	beqz	a3,2eb2 <_printf_i+0x254>
    2c9a:	04300793          	li	a5,67
    2c9e:	0af68e63          	beq	a3,a5,2d5a <_printf_i+0xfc>
    2ca2:	04240a93          	addi	s5,s0,66
    2ca6:	04d40123          	sb	a3,66(s0)
    2caa:	a0c9                	j	2d6c <_printf_i+0x10e>
    2cac:	06300793          	li	a5,99
    2cb0:	0af68563          	beq	a3,a5,2d5a <_printf_i+0xfc>
    2cb4:	06400793          	li	a5,100
    2cb8:	fef695e3          	bne	a3,a5,2ca2 <_printf_i+0x44>
    2cbc:	401c                	lw	a5,0(s0)
    2cbe:	4308                	lw	a0,0(a4)
    2cc0:	0807f693          	andi	a3,a5,128
    2cc4:	00450593          	addi	a1,a0,4
    2cc8:	c6c5                	beqz	a3,2d70 <_printf_i+0x112>
    2cca:	411c                	lw	a5,0(a0)
    2ccc:	c30c                	sw	a1,0(a4)
    2cce:	0007d863          	bgez	a5,2cde <_printf_i+0x80>
    2cd2:	02d00713          	li	a4,45
    2cd6:	40f007b3          	neg	a5,a5
    2cda:	04e401a3          	sb	a4,67(s0)
    2cde:	00001697          	auipc	a3,0x1
    2ce2:	2f268693          	addi	a3,a3,754 # 3fd0 <__sf_fake_stdout+0x44>
    2ce6:	4729                	li	a4,10
    2ce8:	a865                	j	2da0 <_printf_i+0x142>
    2cea:	07000793          	li	a5,112
    2cee:	16f68263          	beq	a3,a5,2e52 <_printf_i+0x1f4>
    2cf2:	02d7e563          	bltu	a5,a3,2d1c <_printf_i+0xbe>
    2cf6:	06e00793          	li	a5,110
    2cfa:	18f68963          	beq	a3,a5,2e8c <_printf_i+0x22e>
    2cfe:	06f00793          	li	a5,111
    2d02:	faf690e3          	bne	a3,a5,2ca2 <_printf_i+0x44>
    2d06:	400c                	lw	a1,0(s0)
    2d08:	431c                	lw	a5,0(a4)
    2d0a:	0805f813          	andi	a6,a1,128
    2d0e:	00478513          	addi	a0,a5,4
    2d12:	06080763          	beqz	a6,2d80 <_printf_i+0x122>
    2d16:	c308                	sw	a0,0(a4)
    2d18:	439c                	lw	a5,0(a5)
    2d1a:	a885                	j	2d8a <_printf_i+0x12c>
    2d1c:	07500793          	li	a5,117
    2d20:	fef683e3          	beq	a3,a5,2d06 <_printf_i+0xa8>
    2d24:	07800793          	li	a5,120
    2d28:	12f68963          	beq	a3,a5,2e5a <_printf_i+0x1fc>
    2d2c:	07300793          	li	a5,115
    2d30:	f6f699e3          	bne	a3,a5,2ca2 <_printf_i+0x44>
    2d34:	431c                	lw	a5,0(a4)
    2d36:	41d0                	lw	a2,4(a1)
    2d38:	4581                	li	a1,0
    2d3a:	00478693          	addi	a3,a5,4
    2d3e:	c314                	sw	a3,0(a4)
    2d40:	0007aa83          	lw	s5,0(a5)
    2d44:	8556                	mv	a0,s5
    2d46:	2789                	jal	3488 <memchr>
    2d48:	c501                	beqz	a0,2d50 <_printf_i+0xf2>
    2d4a:	41550533          	sub	a0,a0,s5
    2d4e:	c048                	sw	a0,4(s0)
    2d50:	405c                	lw	a5,4(s0)
    2d52:	c81c                	sw	a5,16(s0)
    2d54:	040401a3          	sb	zero,67(s0)
    2d58:	a861                	j	2df0 <_printf_i+0x192>
    2d5a:	431c                	lw	a5,0(a4)
    2d5c:	04240a93          	addi	s5,s0,66
    2d60:	00478693          	addi	a3,a5,4
    2d64:	439c                	lw	a5,0(a5)
    2d66:	c314                	sw	a3,0(a4)
    2d68:	04f40123          	sb	a5,66(s0)
    2d6c:	4785                	li	a5,1
    2d6e:	b7d5                	j	2d52 <_printf_i+0xf4>
    2d70:	0407f693          	andi	a3,a5,64
    2d74:	411c                	lw	a5,0(a0)
    2d76:	c30c                	sw	a1,0(a4)
    2d78:	dab9                	beqz	a3,2cce <_printf_i+0x70>
    2d7a:	07c2                	slli	a5,a5,0x10
    2d7c:	87c1                	srai	a5,a5,0x10
    2d7e:	bf81                	j	2cce <_printf_i+0x70>
    2d80:	0405f593          	andi	a1,a1,64
    2d84:	c308                	sw	a0,0(a4)
    2d86:	d9c9                	beqz	a1,2d18 <_printf_i+0xba>
    2d88:	239e                	lhu	a5,0(a5)
    2d8a:	06f00713          	li	a4,111
    2d8e:	0ee68763          	beq	a3,a4,2e7c <_printf_i+0x21e>
    2d92:	00001697          	auipc	a3,0x1
    2d96:	23e68693          	addi	a3,a3,574 # 3fd0 <__sf_fake_stdout+0x44>
    2d9a:	4729                	li	a4,10
    2d9c:	040401a3          	sb	zero,67(s0)
    2da0:	404c                	lw	a1,4(s0)
    2da2:	c40c                	sw	a1,8(s0)
    2da4:	0005c563          	bltz	a1,2dae <_printf_i+0x150>
    2da8:	4008                	lw	a0,0(s0)
    2daa:	996d                	andi	a0,a0,-5
    2dac:	c008                	sw	a0,0(s0)
    2dae:	e399                	bnez	a5,2db4 <_printf_i+0x156>
    2db0:	8ab2                	mv	s5,a2
    2db2:	cd89                	beqz	a1,2dcc <_printf_i+0x16e>
    2db4:	8ab2                	mv	s5,a2
    2db6:	02e7f5b3          	remu	a1,a5,a4
    2dba:	1afd                	addi	s5,s5,-1
    2dbc:	95b6                	add	a1,a1,a3
    2dbe:	218c                	lbu	a1,0(a1)
    2dc0:	00ba8023          	sb	a1,0(s5)
    2dc4:	02e7d5b3          	divu	a1,a5,a4
    2dc8:	0ce7f063          	bgeu	a5,a4,2e88 <_printf_i+0x22a>
    2dcc:	47a1                	li	a5,8
    2dce:	00f71e63          	bne	a4,a5,2dea <_printf_i+0x18c>
    2dd2:	401c                	lw	a5,0(s0)
    2dd4:	8b85                	andi	a5,a5,1
    2dd6:	cb91                	beqz	a5,2dea <_printf_i+0x18c>
    2dd8:	4058                	lw	a4,4(s0)
    2dda:	481c                	lw	a5,16(s0)
    2ddc:	00e7c763          	blt	a5,a4,2dea <_printf_i+0x18c>
    2de0:	03000793          	li	a5,48
    2de4:	fefa8fa3          	sb	a5,-1(s5)
    2de8:	1afd                	addi	s5,s5,-1
    2dea:	41560633          	sub	a2,a2,s5
    2dee:	c810                	sw	a2,16(s0)
    2df0:	874e                	mv	a4,s3
    2df2:	86ca                	mv	a3,s2
    2df4:	0070                	addi	a2,sp,12
    2df6:	85a2                	mv	a1,s0
    2df8:	8526                	mv	a0,s1
    2dfa:	d59ff0ef          	jal	ra,2b52 <_printf_common>
    2dfe:	5a7d                	li	s4,-1
    2e00:	0b451d63          	bne	a0,s4,2eba <_printf_i+0x25c>
    2e04:	557d                	li	a0,-1
    2e06:	50b2                	lw	ra,44(sp)
    2e08:	5422                	lw	s0,40(sp)
    2e0a:	5492                	lw	s1,36(sp)
    2e0c:	5902                	lw	s2,32(sp)
    2e0e:	49f2                	lw	s3,28(sp)
    2e10:	4a62                	lw	s4,24(sp)
    2e12:	4ad2                	lw	s5,20(sp)
    2e14:	4b42                	lw	s6,16(sp)
    2e16:	6145                	addi	sp,sp,48
    2e18:	8082                	ret
    2e1a:	04d582a3          	sb	a3,69(a1)
    2e1e:	00001697          	auipc	a3,0x1
    2e22:	1b268693          	addi	a3,a3,434 # 3fd0 <__sf_fake_stdout+0x44>
    2e26:	400c                	lw	a1,0(s0)
    2e28:	4308                	lw	a0,0(a4)
    2e2a:	0805f813          	andi	a6,a1,128
    2e2e:	411c                	lw	a5,0(a0)
    2e30:	0511                	addi	a0,a0,4
    2e32:	02080d63          	beqz	a6,2e6c <_printf_i+0x20e>
    2e36:	c308                	sw	a0,0(a4)
    2e38:	0015f713          	andi	a4,a1,1
    2e3c:	c701                	beqz	a4,2e44 <_printf_i+0x1e6>
    2e3e:	0205e593          	ori	a1,a1,32
    2e42:	c00c                	sw	a1,0(s0)
    2e44:	4741                	li	a4,16
    2e46:	fbb9                	bnez	a5,2d9c <_printf_i+0x13e>
    2e48:	400c                	lw	a1,0(s0)
    2e4a:	fdf5f593          	andi	a1,a1,-33
    2e4e:	c00c                	sw	a1,0(s0)
    2e50:	b7b1                	j	2d9c <_printf_i+0x13e>
    2e52:	419c                	lw	a5,0(a1)
    2e54:	0207e793          	ori	a5,a5,32
    2e58:	c19c                	sw	a5,0(a1)
    2e5a:	07800793          	li	a5,120
    2e5e:	04f402a3          	sb	a5,69(s0)
    2e62:	00001697          	auipc	a3,0x1
    2e66:	18268693          	addi	a3,a3,386 # 3fe4 <__sf_fake_stdout+0x58>
    2e6a:	bf75                	j	2e26 <_printf_i+0x1c8>
    2e6c:	0405f813          	andi	a6,a1,64
    2e70:	c308                	sw	a0,0(a4)
    2e72:	fc0803e3          	beqz	a6,2e38 <_printf_i+0x1da>
    2e76:	07c2                	slli	a5,a5,0x10
    2e78:	83c1                	srli	a5,a5,0x10
    2e7a:	bf7d                	j	2e38 <_printf_i+0x1da>
    2e7c:	00001697          	auipc	a3,0x1
    2e80:	15468693          	addi	a3,a3,340 # 3fd0 <__sf_fake_stdout+0x44>
    2e84:	4721                	li	a4,8
    2e86:	bf19                	j	2d9c <_printf_i+0x13e>
    2e88:	87ae                	mv	a5,a1
    2e8a:	b735                	j	2db6 <_printf_i+0x158>
    2e8c:	4194                	lw	a3,0(a1)
    2e8e:	431c                	lw	a5,0(a4)
    2e90:	49cc                	lw	a1,20(a1)
    2e92:	0806f813          	andi	a6,a3,128
    2e96:	00478513          	addi	a0,a5,4
    2e9a:	00080663          	beqz	a6,2ea6 <_printf_i+0x248>
    2e9e:	c308                	sw	a0,0(a4)
    2ea0:	439c                	lw	a5,0(a5)
    2ea2:	c38c                	sw	a1,0(a5)
    2ea4:	a039                	j	2eb2 <_printf_i+0x254>
    2ea6:	c308                	sw	a0,0(a4)
    2ea8:	0406f693          	andi	a3,a3,64
    2eac:	439c                	lw	a5,0(a5)
    2eae:	daf5                	beqz	a3,2ea2 <_printf_i+0x244>
    2eb0:	a38e                	sh	a1,0(a5)
    2eb2:	00042823          	sw	zero,16(s0)
    2eb6:	8ab2                	mv	s5,a2
    2eb8:	bf25                	j	2df0 <_printf_i+0x192>
    2eba:	4814                	lw	a3,16(s0)
    2ebc:	8656                	mv	a2,s5
    2ebe:	85ca                	mv	a1,s2
    2ec0:	8526                	mv	a0,s1
    2ec2:	9982                	jalr	s3
    2ec4:	f54500e3          	beq	a0,s4,2e04 <_printf_i+0x1a6>
    2ec8:	401c                	lw	a5,0(s0)
    2eca:	8b89                	andi	a5,a5,2
    2ecc:	e78d                	bnez	a5,2ef6 <_printf_i+0x298>
    2ece:	47b2                	lw	a5,12(sp)
    2ed0:	4448                	lw	a0,12(s0)
    2ed2:	f2f55ae3          	bge	a0,a5,2e06 <_printf_i+0x1a8>
    2ed6:	853e                	mv	a0,a5
    2ed8:	b73d                	j	2e06 <_printf_i+0x1a8>
    2eda:	4685                	li	a3,1
    2edc:	8656                	mv	a2,s5
    2ede:	85ca                	mv	a1,s2
    2ee0:	8526                	mv	a0,s1
    2ee2:	9982                	jalr	s3
    2ee4:	f36500e3          	beq	a0,s6,2e04 <_printf_i+0x1a6>
    2ee8:	0a05                	addi	s4,s4,1
    2eea:	445c                	lw	a5,12(s0)
    2eec:	4732                	lw	a4,12(sp)
    2eee:	8f99                	sub	a5,a5,a4
    2ef0:	fefa45e3          	blt	s4,a5,2eda <_printf_i+0x27c>
    2ef4:	bfe9                	j	2ece <_printf_i+0x270>
    2ef6:	4a01                	li	s4,0
    2ef8:	01940a93          	addi	s5,s0,25
    2efc:	5b7d                	li	s6,-1
    2efe:	b7f5                	j	2eea <_printf_i+0x28c>

00002f00 <__sread>:
    2f00:	1141                	addi	sp,sp,-16
    2f02:	c422                	sw	s0,8(sp)
    2f04:	842e                	mv	s0,a1
    2f06:	00e59583          	lh	a1,14(a1)
    2f0a:	c606                	sw	ra,12(sp)
    2f0c:	25d5                	jal	35f0 <_read_r>
    2f0e:	00054963          	bltz	a0,2f20 <__sread+0x20>
    2f12:	487c                	lw	a5,84(s0)
    2f14:	97aa                	add	a5,a5,a0
    2f16:	c87c                	sw	a5,84(s0)
    2f18:	40b2                	lw	ra,12(sp)
    2f1a:	4422                	lw	s0,8(sp)
    2f1c:	0141                	addi	sp,sp,16
    2f1e:	8082                	ret
    2f20:	245e                	lhu	a5,12(s0)
    2f22:	777d                	lui	a4,0xfffff
    2f24:	177d                	addi	a4,a4,-1
    2f26:	8ff9                	and	a5,a5,a4
    2f28:	a45e                	sh	a5,12(s0)
    2f2a:	b7fd                	j	2f18 <__sread+0x18>

00002f2c <__swrite>:
    2f2c:	25de                	lhu	a5,12(a1)
    2f2e:	1101                	addi	sp,sp,-32
    2f30:	cc22                	sw	s0,24(sp)
    2f32:	ca26                	sw	s1,20(sp)
    2f34:	c84a                	sw	s2,16(sp)
    2f36:	c64e                	sw	s3,12(sp)
    2f38:	ce06                	sw	ra,28(sp)
    2f3a:	1007f793          	andi	a5,a5,256
    2f3e:	84aa                	mv	s1,a0
    2f40:	842e                	mv	s0,a1
    2f42:	8932                	mv	s2,a2
    2f44:	89b6                	mv	s3,a3
    2f46:	c791                	beqz	a5,2f52 <__swrite+0x26>
    2f48:	00e59583          	lh	a1,14(a1)
    2f4c:	4689                	li	a3,2
    2f4e:	4601                	li	a2,0
    2f50:	211d                	jal	3376 <_lseek_r>
    2f52:	245e                	lhu	a5,12(s0)
    2f54:	777d                	lui	a4,0xfffff
    2f56:	177d                	addi	a4,a4,-1
    2f58:	8ff9                	and	a5,a5,a4
    2f5a:	a45e                	sh	a5,12(s0)
    2f5c:	00e41583          	lh	a1,14(s0)
    2f60:	4462                	lw	s0,24(sp)
    2f62:	40f2                	lw	ra,28(sp)
    2f64:	86ce                	mv	a3,s3
    2f66:	864a                	mv	a2,s2
    2f68:	49b2                	lw	s3,12(sp)
    2f6a:	4942                	lw	s2,16(sp)
    2f6c:	8526                	mv	a0,s1
    2f6e:	44d2                	lw	s1,20(sp)
    2f70:	6105                	addi	sp,sp,32
    2f72:	aa11                	j	3086 <_write_r>

00002f74 <__sseek>:
    2f74:	1141                	addi	sp,sp,-16
    2f76:	c422                	sw	s0,8(sp)
    2f78:	842e                	mv	s0,a1
    2f7a:	00e59583          	lh	a1,14(a1)
    2f7e:	c606                	sw	ra,12(sp)
    2f80:	2edd                	jal	3376 <_lseek_r>
    2f82:	57fd                	li	a5,-1
    2f84:	245a                	lhu	a4,12(s0)
    2f86:	00f51a63          	bne	a0,a5,2f9a <__sseek+0x26>
    2f8a:	77fd                	lui	a5,0xfffff
    2f8c:	17fd                	addi	a5,a5,-1
    2f8e:	8ff9                	and	a5,a5,a4
    2f90:	a45e                	sh	a5,12(s0)
    2f92:	40b2                	lw	ra,12(sp)
    2f94:	4422                	lw	s0,8(sp)
    2f96:	0141                	addi	sp,sp,16
    2f98:	8082                	ret
    2f9a:	6785                	lui	a5,0x1
    2f9c:	8fd9                	or	a5,a5,a4
    2f9e:	a45e                	sh	a5,12(s0)
    2fa0:	c868                	sw	a0,84(s0)
    2fa2:	bfc5                	j	2f92 <__sseek+0x1e>

00002fa4 <__sclose>:
    2fa4:	00e59583          	lh	a1,14(a1)
    2fa8:	a431                	j	31b4 <_close_r>

00002faa <__swbuf_r>:
    2faa:	1101                	addi	sp,sp,-32
    2fac:	cc22                	sw	s0,24(sp)
    2fae:	ca26                	sw	s1,20(sp)
    2fb0:	c84a                	sw	s2,16(sp)
    2fb2:	ce06                	sw	ra,28(sp)
    2fb4:	c64e                	sw	s3,12(sp)
    2fb6:	84aa                	mv	s1,a0
    2fb8:	892e                	mv	s2,a1
    2fba:	8432                	mv	s0,a2
    2fbc:	c509                	beqz	a0,2fc6 <__swbuf_r+0x1c>
    2fbe:	4d1c                	lw	a5,24(a0)
    2fc0:	e399                	bnez	a5,2fc6 <__swbuf_r+0x1c>
    2fc2:	bacff0ef          	jal	ra,236e <__sinit>
    2fc6:	00001797          	auipc	a5,0x1
    2fca:	fa678793          	addi	a5,a5,-90 # 3f6c <__sf_fake_stdin>
    2fce:	06f41763          	bne	s0,a5,303c <__swbuf_r+0x92>
    2fd2:	40c0                	lw	s0,4(s1)
    2fd4:	4c1c                	lw	a5,24(s0)
    2fd6:	c41c                	sw	a5,8(s0)
    2fd8:	245e                	lhu	a5,12(s0)
    2fda:	8ba1                	andi	a5,a5,8
    2fdc:	c3c1                	beqz	a5,305c <__swbuf_r+0xb2>
    2fde:	481c                	lw	a5,16(s0)
    2fe0:	cfb5                	beqz	a5,305c <__swbuf_r+0xb2>
    2fe2:	481c                	lw	a5,16(s0)
    2fe4:	4008                	lw	a0,0(s0)
    2fe6:	0ff97993          	andi	s3,s2,255
    2fea:	0ff97913          	andi	s2,s2,255
    2fee:	8d1d                	sub	a0,a0,a5
    2ff0:	485c                	lw	a5,20(s0)
    2ff2:	00f54663          	blt	a0,a5,2ffe <__swbuf_r+0x54>
    2ff6:	85a2                	mv	a1,s0
    2ff8:	8526                	mv	a0,s1
    2ffa:	2e11                	jal	330e <_fflush_r>
    2ffc:	e525                	bnez	a0,3064 <__swbuf_r+0xba>
    2ffe:	441c                	lw	a5,8(s0)
    3000:	0505                	addi	a0,a0,1
    3002:	17fd                	addi	a5,a5,-1
    3004:	c41c                	sw	a5,8(s0)
    3006:	401c                	lw	a5,0(s0)
    3008:	00178713          	addi	a4,a5,1
    300c:	c018                	sw	a4,0(s0)
    300e:	01378023          	sb	s3,0(a5)
    3012:	485c                	lw	a5,20(s0)
    3014:	00a78863          	beq	a5,a0,3024 <__swbuf_r+0x7a>
    3018:	245e                	lhu	a5,12(s0)
    301a:	8b85                	andi	a5,a5,1
    301c:	cb81                	beqz	a5,302c <__swbuf_r+0x82>
    301e:	47a9                	li	a5,10
    3020:	00f91663          	bne	s2,a5,302c <__swbuf_r+0x82>
    3024:	85a2                	mv	a1,s0
    3026:	8526                	mv	a0,s1
    3028:	24dd                	jal	330e <_fflush_r>
    302a:	ed0d                	bnez	a0,3064 <__swbuf_r+0xba>
    302c:	40f2                	lw	ra,28(sp)
    302e:	4462                	lw	s0,24(sp)
    3030:	854a                	mv	a0,s2
    3032:	44d2                	lw	s1,20(sp)
    3034:	4942                	lw	s2,16(sp)
    3036:	49b2                	lw	s3,12(sp)
    3038:	6105                	addi	sp,sp,32
    303a:	8082                	ret
    303c:	00001797          	auipc	a5,0x1
    3040:	f5078793          	addi	a5,a5,-176 # 3f8c <__sf_fake_stdout>
    3044:	00f41463          	bne	s0,a5,304c <__swbuf_r+0xa2>
    3048:	4480                	lw	s0,8(s1)
    304a:	b769                	j	2fd4 <__swbuf_r+0x2a>
    304c:	00001797          	auipc	a5,0x1
    3050:	f0078793          	addi	a5,a5,-256 # 3f4c <__sf_fake_stderr>
    3054:	f8f410e3          	bne	s0,a5,2fd4 <__swbuf_r+0x2a>
    3058:	44c0                	lw	s0,12(s1)
    305a:	bfad                	j	2fd4 <__swbuf_r+0x2a>
    305c:	85a2                	mv	a1,s0
    305e:	8526                	mv	a0,s1
    3060:	2891                	jal	30b4 <__swsetup_r>
    3062:	d141                	beqz	a0,2fe2 <__swbuf_r+0x38>
    3064:	597d                	li	s2,-1
    3066:	b7d9                	j	302c <__swbuf_r+0x82>

00003068 <__ascii_wctomb>:
    3068:	cd89                	beqz	a1,3082 <__ascii_wctomb+0x1a>
    306a:	0ff00793          	li	a5,255
    306e:	00c7f763          	bgeu	a5,a2,307c <__ascii_wctomb+0x14>
    3072:	08a00793          	li	a5,138
    3076:	c11c                	sw	a5,0(a0)
    3078:	557d                	li	a0,-1
    307a:	8082                	ret
    307c:	a190                	sb	a2,0(a1)
    307e:	4505                	li	a0,1
    3080:	8082                	ret
    3082:	4501                	li	a0,0
    3084:	8082                	ret

00003086 <_write_r>:
    3086:	1141                	addi	sp,sp,-16
    3088:	c422                	sw	s0,8(sp)
    308a:	842a                	mv	s0,a0
    308c:	852e                	mv	a0,a1
    308e:	85b2                	mv	a1,a2
    3090:	8636                	mv	a2,a3
    3092:	8e01ae23          	sw	zero,-1796(gp) # 20000314 <errno>
    3096:	c606                	sw	ra,12(sp)
    3098:	ef2fe0ef          	jal	ra,178a <_write>
    309c:	57fd                	li	a5,-1
    309e:	00f51763          	bne	a0,a5,30ac <_write_r+0x26>
    30a2:	8fc18793          	addi	a5,gp,-1796 # 20000314 <errno>
    30a6:	439c                	lw	a5,0(a5)
    30a8:	c391                	beqz	a5,30ac <_write_r+0x26>
    30aa:	c01c                	sw	a5,0(s0)
    30ac:	40b2                	lw	ra,12(sp)
    30ae:	4422                	lw	s0,8(sp)
    30b0:	0141                	addi	sp,sp,16
    30b2:	8082                	ret

000030b4 <__swsetup_r>:
    30b4:	1141                	addi	sp,sp,-16
    30b6:	84018793          	addi	a5,gp,-1984 # 20000258 <_impure_ptr>
    30ba:	c226                	sw	s1,4(sp)
    30bc:	4384                	lw	s1,0(a5)
    30be:	c422                	sw	s0,8(sp)
    30c0:	c04a                	sw	s2,0(sp)
    30c2:	c606                	sw	ra,12(sp)
    30c4:	892a                	mv	s2,a0
    30c6:	842e                	mv	s0,a1
    30c8:	c491                	beqz	s1,30d4 <__swsetup_r+0x20>
    30ca:	4c9c                	lw	a5,24(s1)
    30cc:	e781                	bnez	a5,30d4 <__swsetup_r+0x20>
    30ce:	8526                	mv	a0,s1
    30d0:	a9eff0ef          	jal	ra,236e <__sinit>
    30d4:	00001797          	auipc	a5,0x1
    30d8:	e9878793          	addi	a5,a5,-360 # 3f6c <__sf_fake_stdin>
    30dc:	02f41b63          	bne	s0,a5,3112 <__swsetup_r+0x5e>
    30e0:	40c0                	lw	s0,4(s1)
    30e2:	00c41703          	lh	a4,12(s0)
    30e6:	01071793          	slli	a5,a4,0x10
    30ea:	83c1                	srli	a5,a5,0x10
    30ec:	0087f693          	andi	a3,a5,8
    30f0:	eab5                	bnez	a3,3164 <__swsetup_r+0xb0>
    30f2:	0107f693          	andi	a3,a5,16
    30f6:	ee95                	bnez	a3,3132 <__swsetup_r+0x7e>
    30f8:	47a5                	li	a5,9
    30fa:	00f92023          	sw	a5,0(s2)
    30fe:	04076713          	ori	a4,a4,64
    3102:	a45a                	sh	a4,12(s0)
    3104:	557d                	li	a0,-1
    3106:	40b2                	lw	ra,12(sp)
    3108:	4422                	lw	s0,8(sp)
    310a:	4492                	lw	s1,4(sp)
    310c:	4902                	lw	s2,0(sp)
    310e:	0141                	addi	sp,sp,16
    3110:	8082                	ret
    3112:	00001797          	auipc	a5,0x1
    3116:	e7a78793          	addi	a5,a5,-390 # 3f8c <__sf_fake_stdout>
    311a:	00f41463          	bne	s0,a5,3122 <__swsetup_r+0x6e>
    311e:	4480                	lw	s0,8(s1)
    3120:	b7c9                	j	30e2 <__swsetup_r+0x2e>
    3122:	00001797          	auipc	a5,0x1
    3126:	e2a78793          	addi	a5,a5,-470 # 3f4c <__sf_fake_stderr>
    312a:	faf41ce3          	bne	s0,a5,30e2 <__swsetup_r+0x2e>
    312e:	44c0                	lw	s0,12(s1)
    3130:	bf4d                	j	30e2 <__swsetup_r+0x2e>
    3132:	8b91                	andi	a5,a5,4
    3134:	c785                	beqz	a5,315c <__swsetup_r+0xa8>
    3136:	584c                	lw	a1,52(s0)
    3138:	c991                	beqz	a1,314c <__swsetup_r+0x98>
    313a:	04440793          	addi	a5,s0,68
    313e:	00f58563          	beq	a1,a5,3148 <__swsetup_r+0x94>
    3142:	854a                	mv	a0,s2
    3144:	db9fe0ef          	jal	ra,1efc <_free_r>
    3148:	02042a23          	sw	zero,52(s0)
    314c:	245e                	lhu	a5,12(s0)
    314e:	00042223          	sw	zero,4(s0)
    3152:	fdb7f793          	andi	a5,a5,-37
    3156:	a45e                	sh	a5,12(s0)
    3158:	481c                	lw	a5,16(s0)
    315a:	c01c                	sw	a5,0(s0)
    315c:	245e                	lhu	a5,12(s0)
    315e:	0087e793          	ori	a5,a5,8
    3162:	a45e                	sh	a5,12(s0)
    3164:	481c                	lw	a5,16(s0)
    3166:	eb99                	bnez	a5,317c <__swsetup_r+0xc8>
    3168:	245e                	lhu	a5,12(s0)
    316a:	20000713          	li	a4,512
    316e:	2807f793          	andi	a5,a5,640
    3172:	00e78563          	beq	a5,a4,317c <__swsetup_r+0xc8>
    3176:	85a2                	mv	a1,s0
    3178:	854a                	mv	a0,s2
    317a:	2cbd                	jal	33f8 <__smakebuf_r>
    317c:	245e                	lhu	a5,12(s0)
    317e:	0017f713          	andi	a4,a5,1
    3182:	c31d                	beqz	a4,31a8 <__swsetup_r+0xf4>
    3184:	485c                	lw	a5,20(s0)
    3186:	00042423          	sw	zero,8(s0)
    318a:	40f007b3          	neg	a5,a5
    318e:	cc1c                	sw	a5,24(s0)
    3190:	481c                	lw	a5,16(s0)
    3192:	4501                	li	a0,0
    3194:	fbad                	bnez	a5,3106 <__swsetup_r+0x52>
    3196:	00c41783          	lh	a5,12(s0)
    319a:	0807f713          	andi	a4,a5,128
    319e:	d725                	beqz	a4,3106 <__swsetup_r+0x52>
    31a0:	0407e793          	ori	a5,a5,64
    31a4:	a45e                	sh	a5,12(s0)
    31a6:	bfb9                	j	3104 <__swsetup_r+0x50>
    31a8:	8b89                	andi	a5,a5,2
    31aa:	4701                	li	a4,0
    31ac:	e391                	bnez	a5,31b0 <__swsetup_r+0xfc>
    31ae:	4858                	lw	a4,20(s0)
    31b0:	c418                	sw	a4,8(s0)
    31b2:	bff9                	j	3190 <__swsetup_r+0xdc>

000031b4 <_close_r>:
    31b4:	1141                	addi	sp,sp,-16
    31b6:	c422                	sw	s0,8(sp)
    31b8:	842a                	mv	s0,a0
    31ba:	852e                	mv	a0,a1
    31bc:	8e01ae23          	sw	zero,-1796(gp) # 20000314 <errno>
    31c0:	c606                	sw	ra,12(sp)
    31c2:	21c1                	jal	3682 <_close>
    31c4:	57fd                	li	a5,-1
    31c6:	00f51763          	bne	a0,a5,31d4 <_close_r+0x20>
    31ca:	8fc18793          	addi	a5,gp,-1796 # 20000314 <errno>
    31ce:	439c                	lw	a5,0(a5)
    31d0:	c391                	beqz	a5,31d4 <_close_r+0x20>
    31d2:	c01c                	sw	a5,0(s0)
    31d4:	40b2                	lw	ra,12(sp)
    31d6:	4422                	lw	s0,8(sp)
    31d8:	0141                	addi	sp,sp,16
    31da:	8082                	ret

000031dc <__sflush_r>:
    31dc:	25de                	lhu	a5,12(a1)
    31de:	1101                	addi	sp,sp,-32
    31e0:	cc22                	sw	s0,24(sp)
    31e2:	ca26                	sw	s1,20(sp)
    31e4:	ce06                	sw	ra,28(sp)
    31e6:	c84a                	sw	s2,16(sp)
    31e8:	c64e                	sw	s3,12(sp)
    31ea:	0087f713          	andi	a4,a5,8
    31ee:	84aa                	mv	s1,a0
    31f0:	842e                	mv	s0,a1
    31f2:	ef61                	bnez	a4,32ca <__sflush_r+0xee>
    31f4:	41d8                	lw	a4,4(a1)
    31f6:	00e04d63          	bgtz	a4,3210 <__sflush_r+0x34>
    31fa:	41b8                	lw	a4,64(a1)
    31fc:	00e04a63          	bgtz	a4,3210 <__sflush_r+0x34>
    3200:	4501                	li	a0,0
    3202:	40f2                	lw	ra,28(sp)
    3204:	4462                	lw	s0,24(sp)
    3206:	44d2                	lw	s1,20(sp)
    3208:	4942                	lw	s2,16(sp)
    320a:	49b2                	lw	s3,12(sp)
    320c:	6105                	addi	sp,sp,32
    320e:	8082                	ret
    3210:	5458                	lw	a4,44(s0)
    3212:	d77d                	beqz	a4,3200 <__sflush_r+0x24>
    3214:	0004a903          	lw	s2,0(s1)
    3218:	01379693          	slli	a3,a5,0x13
    321c:	0004a023          	sw	zero,0(s1)
    3220:	0606dc63          	bgez	a3,3298 <__sflush_r+0xbc>
    3224:	4870                	lw	a2,84(s0)
    3226:	245e                	lhu	a5,12(s0)
    3228:	8b91                	andi	a5,a5,4
    322a:	c799                	beqz	a5,3238 <__sflush_r+0x5c>
    322c:	405c                	lw	a5,4(s0)
    322e:	8e1d                	sub	a2,a2,a5
    3230:	585c                	lw	a5,52(s0)
    3232:	c399                	beqz	a5,3238 <__sflush_r+0x5c>
    3234:	403c                	lw	a5,64(s0)
    3236:	8e1d                	sub	a2,a2,a5
    3238:	545c                	lw	a5,44(s0)
    323a:	500c                	lw	a1,32(s0)
    323c:	4681                	li	a3,0
    323e:	8526                	mv	a0,s1
    3240:	9782                	jalr	a5
    3242:	57fd                	li	a5,-1
    3244:	245a                	lhu	a4,12(s0)
    3246:	00f51d63          	bne	a0,a5,3260 <__sflush_r+0x84>
    324a:	4094                	lw	a3,0(s1)
    324c:	47f5                	li	a5,29
    324e:	06d7e963          	bltu	a5,a3,32c0 <__sflush_r+0xe4>
    3252:	204007b7          	lui	a5,0x20400
    3256:	0785                	addi	a5,a5,1
    3258:	00d7d7b3          	srl	a5,a5,a3
    325c:	8b85                	andi	a5,a5,1
    325e:	c3ad                	beqz	a5,32c0 <__sflush_r+0xe4>
    3260:	481c                	lw	a5,16(s0)
    3262:	00042223          	sw	zero,4(s0)
    3266:	c01c                	sw	a5,0(s0)
    3268:	01371793          	slli	a5,a4,0x13
    326c:	0007d863          	bgez	a5,327c <__sflush_r+0xa0>
    3270:	57fd                	li	a5,-1
    3272:	00f51463          	bne	a0,a5,327a <__sflush_r+0x9e>
    3276:	409c                	lw	a5,0(s1)
    3278:	e391                	bnez	a5,327c <__sflush_r+0xa0>
    327a:	c868                	sw	a0,84(s0)
    327c:	584c                	lw	a1,52(s0)
    327e:	0124a023          	sw	s2,0(s1)
    3282:	ddbd                	beqz	a1,3200 <__sflush_r+0x24>
    3284:	04440793          	addi	a5,s0,68
    3288:	00f58563          	beq	a1,a5,3292 <__sflush_r+0xb6>
    328c:	8526                	mv	a0,s1
    328e:	c6ffe0ef          	jal	ra,1efc <_free_r>
    3292:	02042a23          	sw	zero,52(s0)
    3296:	b7ad                	j	3200 <__sflush_r+0x24>
    3298:	500c                	lw	a1,32(s0)
    329a:	4601                	li	a2,0
    329c:	4685                	li	a3,1
    329e:	8526                	mv	a0,s1
    32a0:	9702                	jalr	a4
    32a2:	57fd                	li	a5,-1
    32a4:	862a                	mv	a2,a0
    32a6:	f8f510e3          	bne	a0,a5,3226 <__sflush_r+0x4a>
    32aa:	409c                	lw	a5,0(s1)
    32ac:	dfad                	beqz	a5,3226 <__sflush_r+0x4a>
    32ae:	4775                	li	a4,29
    32b0:	00e78563          	beq	a5,a4,32ba <__sflush_r+0xde>
    32b4:	4759                	li	a4,22
    32b6:	04e79363          	bne	a5,a4,32fc <__sflush_r+0x120>
    32ba:	0124a023          	sw	s2,0(s1)
    32be:	b789                	j	3200 <__sflush_r+0x24>
    32c0:	04076713          	ori	a4,a4,64
    32c4:	a45a                	sh	a4,12(s0)
    32c6:	557d                	li	a0,-1
    32c8:	bf2d                	j	3202 <__sflush_r+0x26>
    32ca:	0105a983          	lw	s3,16(a1)
    32ce:	f20989e3          	beqz	s3,3200 <__sflush_r+0x24>
    32d2:	0005a903          	lw	s2,0(a1)
    32d6:	8b8d                	andi	a5,a5,3
    32d8:	0135a023          	sw	s3,0(a1)
    32dc:	41390933          	sub	s2,s2,s3
    32e0:	4701                	li	a4,0
    32e2:	e391                	bnez	a5,32e6 <__sflush_r+0x10a>
    32e4:	49d8                	lw	a4,20(a1)
    32e6:	c418                	sw	a4,8(s0)
    32e8:	f1205ce3          	blez	s2,3200 <__sflush_r+0x24>
    32ec:	541c                	lw	a5,40(s0)
    32ee:	500c                	lw	a1,32(s0)
    32f0:	86ca                	mv	a3,s2
    32f2:	864e                	mv	a2,s3
    32f4:	8526                	mv	a0,s1
    32f6:	9782                	jalr	a5
    32f8:	00a04763          	bgtz	a0,3306 <__sflush_r+0x12a>
    32fc:	245e                	lhu	a5,12(s0)
    32fe:	0407e793          	ori	a5,a5,64
    3302:	a45e                	sh	a5,12(s0)
    3304:	b7c9                	j	32c6 <__sflush_r+0xea>
    3306:	99aa                	add	s3,s3,a0
    3308:	40a90933          	sub	s2,s2,a0
    330c:	bff1                	j	32e8 <__sflush_r+0x10c>

0000330e <_fflush_r>:
    330e:	499c                	lw	a5,16(a1)
    3310:	c3ad                	beqz	a5,3372 <_fflush_r+0x64>
    3312:	1101                	addi	sp,sp,-32
    3314:	cc22                	sw	s0,24(sp)
    3316:	ce06                	sw	ra,28(sp)
    3318:	842a                	mv	s0,a0
    331a:	c519                	beqz	a0,3328 <_fflush_r+0x1a>
    331c:	4d1c                	lw	a5,24(a0)
    331e:	e789                	bnez	a5,3328 <_fflush_r+0x1a>
    3320:	c62e                	sw	a1,12(sp)
    3322:	84cff0ef          	jal	ra,236e <__sinit>
    3326:	45b2                	lw	a1,12(sp)
    3328:	00001797          	auipc	a5,0x1
    332c:	c4478793          	addi	a5,a5,-956 # 3f6c <__sf_fake_stdin>
    3330:	00f59c63          	bne	a1,a5,3348 <_fflush_r+0x3a>
    3334:	404c                	lw	a1,4(s0)
    3336:	00c59783          	lh	a5,12(a1)
    333a:	c79d                	beqz	a5,3368 <_fflush_r+0x5a>
    333c:	8522                	mv	a0,s0
    333e:	4462                	lw	s0,24(sp)
    3340:	40f2                	lw	ra,28(sp)
    3342:	6105                	addi	sp,sp,32
    3344:	e99ff06f          	j	31dc <__sflush_r>
    3348:	00001797          	auipc	a5,0x1
    334c:	c4478793          	addi	a5,a5,-956 # 3f8c <__sf_fake_stdout>
    3350:	00f59463          	bne	a1,a5,3358 <_fflush_r+0x4a>
    3354:	440c                	lw	a1,8(s0)
    3356:	b7c5                	j	3336 <_fflush_r+0x28>
    3358:	00001797          	auipc	a5,0x1
    335c:	bf478793          	addi	a5,a5,-1036 # 3f4c <__sf_fake_stderr>
    3360:	fcf59be3          	bne	a1,a5,3336 <_fflush_r+0x28>
    3364:	444c                	lw	a1,12(s0)
    3366:	bfc1                	j	3336 <_fflush_r+0x28>
    3368:	40f2                	lw	ra,28(sp)
    336a:	4462                	lw	s0,24(sp)
    336c:	4501                	li	a0,0
    336e:	6105                	addi	sp,sp,32
    3370:	8082                	ret
    3372:	4501                	li	a0,0
    3374:	8082                	ret

00003376 <_lseek_r>:
    3376:	1141                	addi	sp,sp,-16
    3378:	c422                	sw	s0,8(sp)
    337a:	842a                	mv	s0,a0
    337c:	852e                	mv	a0,a1
    337e:	85b2                	mv	a1,a2
    3380:	8636                	mv	a2,a3
    3382:	8e01ae23          	sw	zero,-1796(gp) # 20000314 <errno>
    3386:	c606                	sw	ra,12(sp)
    3388:	2e39                	jal	36a6 <_lseek>
    338a:	57fd                	li	a5,-1
    338c:	00f51763          	bne	a0,a5,339a <_lseek_r+0x24>
    3390:	8fc18793          	addi	a5,gp,-1796 # 20000314 <errno>
    3394:	439c                	lw	a5,0(a5)
    3396:	c391                	beqz	a5,339a <_lseek_r+0x24>
    3398:	c01c                	sw	a5,0(s0)
    339a:	40b2                	lw	ra,12(sp)
    339c:	4422                	lw	s0,8(sp)
    339e:	0141                	addi	sp,sp,16
    33a0:	8082                	ret

000033a2 <__swhatbuf_r>:
    33a2:	7119                	addi	sp,sp,-128
    33a4:	daa6                	sw	s1,116(sp)
    33a6:	84ae                	mv	s1,a1
    33a8:	00e59583          	lh	a1,14(a1)
    33ac:	dca2                	sw	s0,120(sp)
    33ae:	de86                	sw	ra,124(sp)
    33b0:	8432                	mv	s0,a2
    33b2:	0005db63          	bgez	a1,33c8 <__swhatbuf_r+0x26>
    33b6:	24de                	lhu	a5,12(s1)
    33b8:	0006a023          	sw	zero,0(a3)
    33bc:	0807f793          	andi	a5,a5,128
    33c0:	e39d                	bnez	a5,33e6 <__swhatbuf_r+0x44>
    33c2:	40000793          	li	a5,1024
    33c6:	a015                	j	33ea <__swhatbuf_r+0x48>
    33c8:	0830                	addi	a2,sp,24
    33ca:	c636                	sw	a3,12(sp)
    33cc:	2c81                	jal	361c <_fstat_r>
    33ce:	46b2                	lw	a3,12(sp)
    33d0:	fe0543e3          	bltz	a0,33b6 <__swhatbuf_r+0x14>
    33d4:	4772                	lw	a4,28(sp)
    33d6:	67bd                	lui	a5,0xf
    33d8:	8ff9                	and	a5,a5,a4
    33da:	7779                	lui	a4,0xffffe
    33dc:	97ba                	add	a5,a5,a4
    33de:	0017b793          	seqz	a5,a5
    33e2:	c29c                	sw	a5,0(a3)
    33e4:	bff9                	j	33c2 <__swhatbuf_r+0x20>
    33e6:	04000793          	li	a5,64
    33ea:	c01c                	sw	a5,0(s0)
    33ec:	50f6                	lw	ra,124(sp)
    33ee:	5466                	lw	s0,120(sp)
    33f0:	54d6                	lw	s1,116(sp)
    33f2:	4501                	li	a0,0
    33f4:	6109                	addi	sp,sp,128
    33f6:	8082                	ret

000033f8 <__smakebuf_r>:
    33f8:	25de                	lhu	a5,12(a1)
    33fa:	1101                	addi	sp,sp,-32
    33fc:	cc22                	sw	s0,24(sp)
    33fe:	ce06                	sw	ra,28(sp)
    3400:	ca26                	sw	s1,20(sp)
    3402:	c84a                	sw	s2,16(sp)
    3404:	8b89                	andi	a5,a5,2
    3406:	842e                	mv	s0,a1
    3408:	cf89                	beqz	a5,3422 <__smakebuf_r+0x2a>
    340a:	04740793          	addi	a5,s0,71
    340e:	c01c                	sw	a5,0(s0)
    3410:	c81c                	sw	a5,16(s0)
    3412:	4785                	li	a5,1
    3414:	c85c                	sw	a5,20(s0)
    3416:	40f2                	lw	ra,28(sp)
    3418:	4462                	lw	s0,24(sp)
    341a:	44d2                	lw	s1,20(sp)
    341c:	4942                	lw	s2,16(sp)
    341e:	6105                	addi	sp,sp,32
    3420:	8082                	ret
    3422:	0074                	addi	a3,sp,12
    3424:	0030                	addi	a2,sp,8
    3426:	84aa                	mv	s1,a0
    3428:	3fad                	jal	33a2 <__swhatbuf_r>
    342a:	45a2                	lw	a1,8(sp)
    342c:	892a                	mv	s2,a0
    342e:	8526                	mv	a0,s1
    3430:	b71fe0ef          	jal	ra,1fa0 <_malloc_r>
    3434:	e919                	bnez	a0,344a <__smakebuf_r+0x52>
    3436:	00c41783          	lh	a5,12(s0)
    343a:	2007f713          	andi	a4,a5,512
    343e:	ff61                	bnez	a4,3416 <__smakebuf_r+0x1e>
    3440:	9bf1                	andi	a5,a5,-4
    3442:	0027e793          	ori	a5,a5,2
    3446:	a45e                	sh	a5,12(s0)
    3448:	b7c9                	j	340a <__smakebuf_r+0x12>
    344a:	fffff797          	auipc	a5,0xfffff
    344e:	ed278793          	addi	a5,a5,-302 # 231c <_cleanup_r>
    3452:	d49c                	sw	a5,40(s1)
    3454:	245e                	lhu	a5,12(s0)
    3456:	c008                	sw	a0,0(s0)
    3458:	c808                	sw	a0,16(s0)
    345a:	0807e793          	ori	a5,a5,128
    345e:	a45e                	sh	a5,12(s0)
    3460:	47a2                	lw	a5,8(sp)
    3462:	c85c                	sw	a5,20(s0)
    3464:	47b2                	lw	a5,12(sp)
    3466:	cb99                	beqz	a5,347c <__smakebuf_r+0x84>
    3468:	00e41583          	lh	a1,14(s0)
    346c:	8526                	mv	a0,s1
    346e:	2ae1                	jal	3646 <_isatty_r>
    3470:	c511                	beqz	a0,347c <__smakebuf_r+0x84>
    3472:	245e                	lhu	a5,12(s0)
    3474:	9bf1                	andi	a5,a5,-4
    3476:	0017e793          	ori	a5,a5,1
    347a:	a45e                	sh	a5,12(s0)
    347c:	245e                	lhu	a5,12(s0)
    347e:	00f96933          	or	s2,s2,a5
    3482:	01241623          	sh	s2,12(s0)
    3486:	bf41                	j	3416 <__smakebuf_r+0x1e>

00003488 <memchr>:
    3488:	0ff5f593          	andi	a1,a1,255
    348c:	962a                	add	a2,a2,a0
    348e:	00c51463          	bne	a0,a2,3496 <memchr+0xe>
    3492:	4501                	li	a0,0
    3494:	8082                	ret
    3496:	211c                	lbu	a5,0(a0)
    3498:	feb78ee3          	beq	a5,a1,3494 <memchr+0xc>
    349c:	0505                	addi	a0,a0,1
    349e:	bfc5                	j	348e <memchr+0x6>

000034a0 <memcpy>:
    34a0:	00a5c7b3          	xor	a5,a1,a0
    34a4:	8b8d                	andi	a5,a5,3
    34a6:	00c50733          	add	a4,a0,a2
    34aa:	e781                	bnez	a5,34b2 <memcpy+0x12>
    34ac:	478d                	li	a5,3
    34ae:	00c7ed63          	bltu	a5,a2,34c8 <memcpy+0x28>
    34b2:	87aa                	mv	a5,a0
    34b4:	08e57e63          	bgeu	a0,a4,3550 <memcpy+0xb0>
    34b8:	2194                	lbu	a3,0(a1)
    34ba:	0785                	addi	a5,a5,1
    34bc:	0585                	addi	a1,a1,1
    34be:	fed78fa3          	sb	a3,-1(a5)
    34c2:	fee7ebe3          	bltu	a5,a4,34b8 <memcpy+0x18>
    34c6:	8082                	ret
    34c8:	00357693          	andi	a3,a0,3
    34cc:	87aa                	mv	a5,a0
    34ce:	ca89                	beqz	a3,34e0 <memcpy+0x40>
    34d0:	2194                	lbu	a3,0(a1)
    34d2:	0785                	addi	a5,a5,1
    34d4:	0585                	addi	a1,a1,1
    34d6:	fed78fa3          	sb	a3,-1(a5)
    34da:	0037f693          	andi	a3,a5,3
    34de:	bfc5                	j	34ce <memcpy+0x2e>
    34e0:	ffc77693          	andi	a3,a4,-4
    34e4:	fe068613          	addi	a2,a3,-32
    34e8:	06c7f063          	bgeu	a5,a2,3548 <memcpy+0xa8>
    34ec:	0005a383          	lw	t2,0(a1)
    34f0:	0045a283          	lw	t0,4(a1)
    34f4:	0085af83          	lw	t6,8(a1)
    34f8:	00c5af03          	lw	t5,12(a1)
    34fc:	0105ae83          	lw	t4,16(a1)
    3500:	0145ae03          	lw	t3,20(a1)
    3504:	0185a303          	lw	t1,24(a1)
    3508:	01c5a883          	lw	a7,28(a1)
    350c:	02458593          	addi	a1,a1,36
    3510:	0077a023          	sw	t2,0(a5)
    3514:	ffc5a803          	lw	a6,-4(a1)
    3518:	0057a223          	sw	t0,4(a5)
    351c:	01f7a423          	sw	t6,8(a5)
    3520:	01e7a623          	sw	t5,12(a5)
    3524:	01d7a823          	sw	t4,16(a5)
    3528:	01c7aa23          	sw	t3,20(a5)
    352c:	0067ac23          	sw	t1,24(a5)
    3530:	0117ae23          	sw	a7,28(a5)
    3534:	02478793          	addi	a5,a5,36
    3538:	ff07ae23          	sw	a6,-4(a5)
    353c:	b775                	j	34e8 <memcpy+0x48>
    353e:	4190                	lw	a2,0(a1)
    3540:	0791                	addi	a5,a5,4
    3542:	0591                	addi	a1,a1,4
    3544:	fec7ae23          	sw	a2,-4(a5)
    3548:	fed7ebe3          	bltu	a5,a3,353e <memcpy+0x9e>
    354c:	f6e7e6e3          	bltu	a5,a4,34b8 <memcpy+0x18>
    3550:	8082                	ret

00003552 <memmove>:
    3552:	04a5f163          	bgeu	a1,a0,3594 <memmove+0x42>
    3556:	00c586b3          	add	a3,a1,a2
    355a:	02d57d63          	bgeu	a0,a3,3594 <memmove+0x42>
    355e:	fff64593          	not	a1,a2
    3562:	4781                	li	a5,0
    3564:	17fd                	addi	a5,a5,-1
    3566:	00f59363          	bne	a1,a5,356c <memmove+0x1a>
    356a:	8082                	ret
    356c:	00f68733          	add	a4,a3,a5
    3570:	00074803          	lbu	a6,0(a4) # ffffe000 <_eusrstack+0xdfff9000>
    3574:	00c78733          	add	a4,a5,a2
    3578:	972a                	add	a4,a4,a0
    357a:	01070023          	sb	a6,0(a4)
    357e:	b7dd                	j	3564 <memmove+0x12>
    3580:	00f58733          	add	a4,a1,a5
    3584:	2314                	lbu	a3,0(a4)
    3586:	00f50733          	add	a4,a0,a5
    358a:	0785                	addi	a5,a5,1
    358c:	a314                	sb	a3,0(a4)
    358e:	fef619e3          	bne	a2,a5,3580 <memmove+0x2e>
    3592:	8082                	ret
    3594:	4781                	li	a5,0
    3596:	bfe5                	j	358e <memmove+0x3c>

00003598 <_realloc_r>:
    3598:	e581                	bnez	a1,35a0 <_realloc_r+0x8>
    359a:	85b2                	mv	a1,a2
    359c:	a05fe06f          	j	1fa0 <_malloc_r>
    35a0:	1101                	addi	sp,sp,-32
    35a2:	cc22                	sw	s0,24(sp)
    35a4:	ce06                	sw	ra,28(sp)
    35a6:	ca26                	sw	s1,20(sp)
    35a8:	c84a                	sw	s2,16(sp)
    35aa:	c64e                	sw	s3,12(sp)
    35ac:	8432                	mv	s0,a2
    35ae:	ee01                	bnez	a2,35c6 <_realloc_r+0x2e>
    35b0:	94dfe0ef          	jal	ra,1efc <_free_r>
    35b4:	4901                	li	s2,0
    35b6:	40f2                	lw	ra,28(sp)
    35b8:	4462                	lw	s0,24(sp)
    35ba:	854a                	mv	a0,s2
    35bc:	44d2                	lw	s1,20(sp)
    35be:	4942                	lw	s2,16(sp)
    35c0:	49b2                	lw	s3,12(sp)
    35c2:	6105                	addi	sp,sp,32
    35c4:	8082                	ret
    35c6:	84ae                	mv	s1,a1
    35c8:	89aa                	mv	s3,a0
    35ca:	2055                	jal	366e <_malloc_usable_size_r>
    35cc:	8926                	mv	s2,s1
    35ce:	fe8574e3          	bgeu	a0,s0,35b6 <_realloc_r+0x1e>
    35d2:	85a2                	mv	a1,s0
    35d4:	854e                	mv	a0,s3
    35d6:	9cbfe0ef          	jal	ra,1fa0 <_malloc_r>
    35da:	892a                	mv	s2,a0
    35dc:	dd69                	beqz	a0,35b6 <_realloc_r+0x1e>
    35de:	85a6                	mv	a1,s1
    35e0:	8622                	mv	a2,s0
    35e2:	ebfff0ef          	jal	ra,34a0 <memcpy>
    35e6:	85a6                	mv	a1,s1
    35e8:	854e                	mv	a0,s3
    35ea:	913fe0ef          	jal	ra,1efc <_free_r>
    35ee:	b7e1                	j	35b6 <_realloc_r+0x1e>

000035f0 <_read_r>:
    35f0:	1141                	addi	sp,sp,-16
    35f2:	c422                	sw	s0,8(sp)
    35f4:	842a                	mv	s0,a0
    35f6:	852e                	mv	a0,a1
    35f8:	85b2                	mv	a1,a2
    35fa:	8636                	mv	a2,a3
    35fc:	8e01ae23          	sw	zero,-1796(gp) # 20000314 <errno>
    3600:	c606                	sw	ra,12(sp)
    3602:	2845                	jal	36b2 <_read>
    3604:	57fd                	li	a5,-1
    3606:	00f51763          	bne	a0,a5,3614 <_read_r+0x24>
    360a:	8fc18793          	addi	a5,gp,-1796 # 20000314 <errno>
    360e:	439c                	lw	a5,0(a5)
    3610:	c391                	beqz	a5,3614 <_read_r+0x24>
    3612:	c01c                	sw	a5,0(s0)
    3614:	40b2                	lw	ra,12(sp)
    3616:	4422                	lw	s0,8(sp)
    3618:	0141                	addi	sp,sp,16
    361a:	8082                	ret

0000361c <_fstat_r>:
    361c:	1141                	addi	sp,sp,-16
    361e:	c422                	sw	s0,8(sp)
    3620:	842a                	mv	s0,a0
    3622:	852e                	mv	a0,a1
    3624:	85b2                	mv	a1,a2
    3626:	8e01ae23          	sw	zero,-1796(gp) # 20000314 <errno>
    362a:	c606                	sw	ra,12(sp)
    362c:	208d                	jal	368e <_fstat>
    362e:	57fd                	li	a5,-1
    3630:	00f51763          	bne	a0,a5,363e <_fstat_r+0x22>
    3634:	8fc18793          	addi	a5,gp,-1796 # 20000314 <errno>
    3638:	439c                	lw	a5,0(a5)
    363a:	c391                	beqz	a5,363e <_fstat_r+0x22>
    363c:	c01c                	sw	a5,0(s0)
    363e:	40b2                	lw	ra,12(sp)
    3640:	4422                	lw	s0,8(sp)
    3642:	0141                	addi	sp,sp,16
    3644:	8082                	ret

00003646 <_isatty_r>:
    3646:	1141                	addi	sp,sp,-16
    3648:	c422                	sw	s0,8(sp)
    364a:	842a                	mv	s0,a0
    364c:	852e                	mv	a0,a1
    364e:	8e01ae23          	sw	zero,-1796(gp) # 20000314 <errno>
    3652:	c606                	sw	ra,12(sp)
    3654:	2099                	jal	369a <_isatty>
    3656:	57fd                	li	a5,-1
    3658:	00f51763          	bne	a0,a5,3666 <_isatty_r+0x20>
    365c:	8fc18793          	addi	a5,gp,-1796 # 20000314 <errno>
    3660:	439c                	lw	a5,0(a5)
    3662:	c391                	beqz	a5,3666 <_isatty_r+0x20>
    3664:	c01c                	sw	a5,0(s0)
    3666:	40b2                	lw	ra,12(sp)
    3668:	4422                	lw	s0,8(sp)
    366a:	0141                	addi	sp,sp,16
    366c:	8082                	ret

0000366e <_malloc_usable_size_r>:
    366e:	ffc5a783          	lw	a5,-4(a1)
    3672:	ffc78513          	addi	a0,a5,-4
    3676:	0007d563          	bgez	a5,3680 <_malloc_usable_size_r+0x12>
    367a:	95aa                	add	a1,a1,a0
    367c:	419c                	lw	a5,0(a1)
    367e:	953e                	add	a0,a0,a5
    3680:	8082                	ret

00003682 <_close>:
    3682:	05800793          	li	a5,88
    3686:	8ef1ae23          	sw	a5,-1796(gp) # 20000314 <errno>
    368a:	557d                	li	a0,-1
    368c:	8082                	ret

0000368e <_fstat>:
    368e:	05800793          	li	a5,88
    3692:	8ef1ae23          	sw	a5,-1796(gp) # 20000314 <errno>
    3696:	557d                	li	a0,-1
    3698:	8082                	ret

0000369a <_isatty>:
    369a:	05800793          	li	a5,88
    369e:	8ef1ae23          	sw	a5,-1796(gp) # 20000314 <errno>
    36a2:	4501                	li	a0,0
    36a4:	8082                	ret

000036a6 <_lseek>:
    36a6:	05800793          	li	a5,88
    36aa:	8ef1ae23          	sw	a5,-1796(gp) # 20000314 <errno>
    36ae:	557d                	li	a0,-1
    36b0:	8082                	ret

000036b2 <_read>:
    36b2:	05800793          	li	a5,88
    36b6:	8ef1ae23          	sw	a5,-1796(gp) # 20000314 <errno>
    36ba:	557d                	li	a0,-1
    36bc:	8082                	ret
    36be:	0000                	unimp
    36c0:	0000                	unimp
    36c2:	4d80                	lw	s0,24(a1)
    36c4:	bc20                	sb	s0,27(s0)
    36c6:	4bbe                	lw	s7,204(sp)
    36c8:	5d73255b          	0x5d73255b
    36cc:	6620                	flw	fs0,72(a2)
    36ce:	6572                	flw	fa0,28(sp)
    36d0:	3a71                	jal	306c <__ascii_wctomb+0x4>
    36d2:	7525                	lui	a0,0xfffe9
    36d4:	6620                	flw	fs0,72(a2)
    36d6:	6572                	flw	fa0,28(sp)
    36d8:	5f71                	li	t5,-4
    36da:	6572                	flw	fa0,28(sp)
    36dc:	75253a67          	0x75253a67
    36e0:	2578302f          	0x2578302f
    36e4:	3830                	lbu	a2,19(s0)
    36e6:	2058                	lbu	a4,4(s0)
    36e8:	534c                	lw	a1,36(a4)
    36ea:	3a42                	lhu	s0,52(a2)
    36ec:	7830                	flw	fa2,112(s0)
    36ee:	3025                	jal	2f16 <__sread+0x16>
    36f0:	5834                	lw	a3,112(s0)
    36f2:	4d20                	lw	s0,88(a0)
    36f4:	303a4253          	0x303a4253
    36f8:	2578                	lbu	a4,14(a0)
    36fa:	3430                	lbu	a2,11(s0)
    36fc:	2558                	lbu	a4,12(a0)
    36fe:	255b0073          	0x255b0073
    3702:	57205d73          	csrrwi	s10,0x572,0
    3706:	7661                	lui	a2,0xffff8
    3708:	3a65                	jal	30c0 <__swsetup_r+0xc>
    370a:	7525                	lui	a0,0xfffe9
    370c:	7320                	flw	fs0,96(a4)
    370e:	7465                	lui	s0,0xffff9
    3710:	7720                	flw	fs0,104(a4)
    3712:	7661                	lui	a2,0xffff8
    3714:	6665                	lui	a2,0x19
    3716:	3a6d726f          	jal	tp,daabc <_data_lma+0xd69c0>
    371a:	7525                	lui	a0,0xfffe9
    371c:	2578302f          	0x2578302f
    3720:	2558                	lbu	a4,12(a0)
    3722:	255b0073          	0x255b0073
    3726:	63205d73          	csrrwi	s10,0x632,0
    372a:	6766                	flw	fa4,88(sp)
    372c:	725f 6765 253a      	0x253a6765725f
    3732:	2f75                	jal	3eee <__clz_tab+0xa2>
    3734:	7830                	flw	fa2,112(s0)
    3736:	5825                	li	a6,-23
    3738:	7325                	lui	t1,0xfffe9
	...

0000373c <CSWTCH.19>:
    373c:	3788 0000 3794 0000 379c 0000               .7...7...7..

00003748 <__func__.5508>:
    3748:	4441 3839 3333 575f 6972 6574 6643 5267     AD9833_WriteCfgR
    3758:	6765 0000                                   eg..

0000375c <__func__.5512>:
    375c:	4441 3839 3333 535f 7465 6157 6576 6f66     AD9833_SetWavefo
    376c:	6d72 0000                                   rm..

00003770 <__func__.5523>:
    3770:	4441 3839 3333 535f 7465 7246 7165 6575     AD9833_SetFreque
    3780:	636e 0079 3f3f 003f 7274 6169 676e 656c     ncy.???.triangle
    3790:	0000 0000 7173 6175 6572 0000 6973 656e     ....square..sine
    37a0:	0000 0000 0c60 0000 0db2 0000 0e0e 0000     ....`...........
    37b0:	0c8c 0000 0ca8 0000 0cd4 0000 0d4a 0000     ............J...
    37c0:	0bee 0000 0bda 0000 7372 0074 6567 0074     ........rst.get.
    37d0:	7065 636f 3d68 0000 7266 7165 003d 0000     epoch=..freq=...
    37e0:	6f66 6d72 003d 0000 7473 7065 003d 0000     form=...step=...
    37f0:	6264 3d67 0000 0000 6e6f 0000 666f 0066     dbg=....on..off.

00003800 <allStep_bin>:
    3800:	0001 0000 000a 0000 0064 0000 03e8 0000     ........d.......
    3810:	2710 0000 86a0 0001 4240 000f 5455 2043     .'......@B..UTC 
    3820:	3025 7532 253a 3230 3a75 3025 7532 0000     %02u:%02u:%02u..
    3830:	6553 2074 7266 7165 6575 636e 2079 6f74     Set frequency to
    3840:	2520 2075 7a48 6120 646e 6620 726f 206d      %u Hz and form 
    3850:	2527 2773 7420 7079 2565 0073 484b 3a7a     '%s' type%s.KHz:
    3860:	7525 252e 0075 0000 7325 253a 0073 0000     %u.%u...%s:%s...
    3870:	7245 6f72 2072 6f63 6d6d 6e61 2064 2521     Error command !%
    3880:	0073 0000 6552 7473 7261 2e74 2e2e 7325     s...Restart...%s
    3890:	7325 0000 6954 656d 253a 2075 6573 2c63     %s..Time:%u sec,
    38a0:	6620 6572 3a71 7525 4820 2c7a 6620 726f      freq:%u Hz, for
    38b0:	3a6d 2527 2773 7325 0000 0000 6553 2074     m:'%s'%s....Set 
    38c0:	7266 7165 6575 636e 2079 6f74 2520 2075     frequency to %u 
    38d0:	7a48 7325 0000 0000 7a48 253a 0075 0000     Hz%s....Hz:%u...
    38e0:	6553 2074 6177 6576 6f66 6d72 273a 7325     Set waveform:'%s
    38f0:	2c27 7320 6574 3a70 7525 4820 257a 0073     ', step:%u Hz%s.
    3900:	6843 7069 4449 303a 2578 2c58 5320 7379     ChipID:0x%X, Sys
    3910:	6574 436d 6b6c 253a 4875 2c7a 5320 6365     temClk:%uHz, Sec
    3920:	6e6f 6164 253a 2575 0073 0000 4831 007a     onda:%u%s...1Hz.
    3930:	3031 7a48 0000 0000 3031 4830 007a 0000     10Hz....100Hz...
    3940:	4b31 7a48 0000 0000 3031 484b 007a 0000     1KHz....10KHz...
    3950:	3031 4b30 7a48 0000 4d31 7a48 0000 0000     100KHz..1MHz....
    3960:	7246 7165 0000 0000 6f46 6d72 0000 0000     Freq....Form....
    3970:	7453 7065 0000 0000 4952 4353 562d 4320     Step....RISC-V C
    3980:	3348 5832 3330 0035 000a 0000               H32X035.....

0000398c <font8x8>:
	...
    3a84:	0e00 1111 000e 0000 0000 0000 0000 0000     ................
    3a94:	0000 5f06 065f 0000 0300 0003 0303 0000     ...__...........
    3aa4:	7f14 147f 7f7f 0014 2e24 6b6b 123a 0000     ........$.kk:...
    3ab4:	6646 1830 660c 0062 7a30 5d4f 7a37 0048     Ff0..fb.0zO]7zH.
    3ac4:	0704 0003 0000 0000 1c00 633e 0041 0000     ..........>cA...
    3ad4:	4100 3e63 001c 0000 2a08 1c3e 3e1c 082a     .Ac>.....*>..>*.
    3ae4:	0808 3e3e 0808 0000 8000 60e0 0000 0000     ..>>.......`....
    3af4:	0808 0808 0808 0000 0000 6060 0000 0000     ..........``....
    3b04:	3060 0c18 0306 0001 7f3e 5971 7f4d 003e     `0......>.qYM.>.
    3b14:	4240 7f7f 4040 0000 7362 4959 666f 0000     @B..@@..bsYIof..
    3b24:	6322 4949 367f 0000 1c18 5316 7f7f 0050     "cII.6.....S..P.
    3b34:	6727 4545 397d 0000 7e3c 494b 3079 0000     'gEE}9..<~KIy0..
    3b44:	0303 7971 070f 0000 7f36 4949 367f 0000     ..qy....6.II.6..
    3b54:	4f06 6949 1e3f 0000 0000 6666 0000 0000     .OIi?.....ff....
    3b64:	8000 66e6 0000 0000 1c08 6336 0041 0000     ...f......6cA...
    3b74:	2424 2424 2424 0000 4100 3663 081c 0000     $$$$$$...Ac6....
    3b84:	0302 5951 060f 0000 7f3e 5d41 1f5d 001e     ..QY....>.A]]...
    3b94:	7e7c 1313 7c7e 0000 7f41 497f 7f49 0036     |~..~|..A..II.6.
    3ba4:	3e1c 4163 6341 0022 7f41 417f 3e63 001c     .>cAAc".A..Ac>..
    3bb4:	7f41 497f 415d 0063 7f41 497f 011d 0003     A..I]Ac.A..I....
    3bc4:	3e1c 4163 7351 0072 7f7f 0808 7f7f 0000     .>cAQsr.........
    3bd4:	4100 7f7f 0041 0000 7030 4140 3f7f 0001     .A..A...0p@A.?..
    3be4:	7f41 087f 771c 0063 7f41 417f 6040 0070     A....wc.A..A@`p.
    3bf4:	7f7f 1c0e 7f0e 007f 7f7f 0c06 7f18 007f     ................
    3c04:	3e1c 4163 3e63 001c 7f41 497f 0f09 0006     .>cAc>..A..I....
    3c14:	3f1e 7121 5e7f 0000 7f41 097f 7f19 0066     .?!q.^..A.....f.
    3c24:	6f26 594d 3273 0000 4103 7f7f 0341 0000     &oMYs2...A..A...
    3c34:	7f7f 4040 7f7f 0000 3f1f 6060 1f3f 0000     ..@@.....?``?...
    3c44:	7f7f 1830 7f30 007f 6743 183c 673c 0043     ..0.0...Cg<.<gC.
    3c54:	4f07 7878 074f 0000 6347 5971 674d 0073     .OxxO...GcqYMgs.
    3c64:	7f00 417f 0041 0000 0301 0c06 3018 0060     ...AA........0`.
    3c74:	4100 7f41 007f 0000 0c08 0306 0c06 0008     .AA.............
    3c84:	8080 8080 8080 8080 0000 0703 0004 0000     ................
    3c94:	7420 5454 783c 0040 7f41 483f 7848 0030      tTT<x@.A.?HHx0.
    3ca4:	7c38 4444 286c 0000 7830 4948 7f3f 0040     8|DDl(..0xHI?.@.
    3cb4:	7c38 5454 185c 0000 7e48 497f 0203 0000     8|TT\...H~.I....
    3cc4:	bc98 a4a4 7cf8 0004 7f41 087f 7c04 0078     .....|..A....|x.
    3cd4:	4400 7d7d 0040 0000 e060 8080 7dfd 0000     .D}}@...`....}..
    3ce4:	7f41 107f 6c38 0044 4100 7f7f 0040 0000     A...8lD..A..@...
    3cf4:	7c7c 3818 7c1c 0078 7c7c 0404 787c 0000     ||.8.|x.||..|x..
    3d04:	7c38 4444 387c 0000 fc84 a4f8 3c24 0018     8|DD|8......$<..
    3d14:	3c18 a424 fcf8 0084 7c44 4c78 1c04 0018     .<$.....D|xL....
    3d24:	5c48 5454 2474 0000 0400 7f3e 2444 0000     H\TTt$....>.D$..
    3d34:	7c3c 4040 7c3c 0040 3c1c 6060 1c3c 0000     <|@@<|@..<``<...
    3d44:	7c3c 3870 7c70 003c 6c44 1038 6c38 0044     <|p8p|<.Dl8.8lD.
    3d54:	bc9c a0a0 7cfc 0000 644c 5c74 644c 0000     .....|..Ldt\Ld..
    3d64:	0808 773e 4141 0000 0000 7700 0077 0000     ..>wAA.....ww...
    3d74:	4141 3e77 0808 0000 0302 0301 0302 0001     AAw>............
    3d84:	ffff ffff ffff 00ff dc14 ffff db3e ffff     ............>...
    3d94:	dc0e ffff db46 ffff dc0e ffff db0c ffff     ....F...........
    3da4:	dc0e ffff db46 ffff db3e ffff db3e ffff     ....F...>...>...
    3db4:	db0c ffff db46 ffff db4c ffff db4c ffff     ....F...L...L...
    3dc4:	db4c ffff db0c ffff dafe ffff dafe ffff     L...............
    3dd4:	dbce ffff dcaa ffff dbce ffff dacc ffff     ................
    3de4:	dbce ffff dcaa ffff dafe ffff dafe ffff     ................
    3df4:	dacc ffff dcaa ffff db0c ffff db0c ffff     ................
    3e04:	db0c ffff dacc ffff de0c ffff dd5e ffff     ............^...
    3e14:	dd5e ffff dd5c ffff dd62 ffff dd62 ffff     ^...\...b...b...
    3e24:	dd32 ffff dd5c ffff dd62 ffff dd32 ffff     2...\...b...2...
    3e34:	dd62 ffff dd5c ffff ddfa ffff ddfa ffff     b...\...........
    3e44:	ddfa ffff dd32 ffff                         ....2...

00003e4c <__clz_tab>:
    3e4c:	0100 0202 0303 0303 0404 0404 0404 0404     ................
    3e5c:	0505 0505 0505 0505 0505 0505 0505 0505     ................
    3e6c:	0606 0606 0606 0606 0606 0606 0606 0606     ................
    3e7c:	0606 0606 0606 0606 0606 0606 0606 0606     ................
    3e8c:	0707 0707 0707 0707 0707 0707 0707 0707     ................
    3e9c:	0707 0707 0707 0707 0707 0707 0707 0707     ................
    3eac:	0707 0707 0707 0707 0707 0707 0707 0707     ................
    3ebc:	0707 0707 0707 0707 0707 0707 0707 0707     ................
    3ecc:	0808 0808 0808 0808 0808 0808 0808 0808     ................
    3edc:	0808 0808 0808 0808 0808 0808 0808 0808     ................
    3eec:	0808 0808 0808 0808 0808 0808 0808 0808     ................
    3efc:	0808 0808 0808 0808 0808 0808 0808 0808     ................
    3f0c:	0808 0808 0808 0808 0808 0808 0808 0808     ................
    3f1c:	0808 0808 0808 0808 0808 0808 0808 0808     ................
    3f2c:	0808 0808 0808 0808 0808 0808 0808 0808     ................
    3f3c:	0808 0808 0808 0808 0808 0808 0808 0808     ................

00003f4c <__sf_fake_stderr>:
	...

00003f6c <__sf_fake_stdin>:
	...

00003f8c <__sf_fake_stdout>:
	...
    3fac:	0043 0000 4f50 4953 0058 0000 002e 0000     C...POSIX.......
    3fbc:	2d23 2b30 0020 0000 6c68 004c 6665 4567     #-0+ ...hlL.efgE
    3fcc:	4746 0000 3130 3332 3534 3736 3938 4241     FG..0123456789AB
    3fdc:	4443 4645 0000 0000 3130 3332 3534 3736     CDEF....01234567
    3fec:	3938 6261 6463 6665 0000 0000               89abcdef....

00003ff8 <_ctype_>:
    3ff8:	2000 2020 2020 2020 2020 2828 2828 2028     .         ((((( 
    4008:	2020 2020 2020 2020 2020 2020 2020 2020                     
    4018:	8820 1010 1010 1010 1010 1010 1010 1010      ...............
    4028:	0410 0404 0404 0404 0404 1004 1010 1010     ................
    4038:	1010 4141 4141 4141 0101 0101 0101 0101     ..AAAAAA........
    4048:	0101 0101 0101 0101 0101 0101 1010 1010     ................
    4058:	1010 4242 4242 4242 0202 0202 0202 0202     ..BBBBBB........
    4068:	0202 0202 0202 0202 0202 0202 1010 1010     ................
    4078:	0020 0000 0000 0000 0000 0000 0000 0000      ...............
	...
